 gmsv_sassilization_win32

 Timestamp is 53869830 (Thu May 29 04:15:12 2014)

 Preferred load address is 10000000

 Start         Length     Name                   Class
 0001:00000000 0001269eH .text                   CODE
 0001:000126a0 00000643H .text$x                 CODE
 0001:00012cf0 000002bcH .text$yc                CODE
 0001:00012fb0 0000016eH .text$yd                CODE
 0002:00000000 00000138H .idata$5                DATA
 0002:00000138 00000004H .CRT$XCA                DATA
 0002:0000013c 00000044H .CRT$XCU                DATA
 0002:00000180 00000004H .CRT$XCZ                DATA
 0002:00000184 00000004H .CRT$XIA                DATA
 0002:00000188 00000010H .CRT$XIC                DATA
 0002:00000198 00000004H .CRT$XIU                DATA
 0002:0000019c 00000004H .CRT$XIZ                DATA
 0002:000001a0 00000004H .CRT$XLA                DATA
 0002:000001a4 00000004H .CRT$XLC                DATA
 0002:000001a8 00000004H .CRT$XLZ                DATA
 0002:000001ac 00000004H .CRT$XPA                DATA
 0002:000001b0 00000004H .CRT$XPX                DATA
 0002:000001b4 00000004H .CRT$XPXA               DATA
 0002:000001b8 00000004H .CRT$XPZ                DATA
 0002:000001bc 00000004H .CRT$XTA                DATA
 0002:000001c0 00000004H .CRT$XTU                DATA
 0002:000001c4 00000004H .CRT$XTZ                DATA
 0002:000001d0 00002b68H .rdata                  DATA
 0002:00002d38 00000018H .rdata$T                DATA
 0002:00002d50 00000066H .rdata$debug            DATA
 0002:00002db8 00000708H .rdata$r                DATA
 0002:000034c0 00000080H .rdata$sxdata           DATA
 0002:00003540 00000004H .rtc$IAA                DATA
 0002:00003544 00000004H .rtc$IZZ                DATA
 0002:00003548 00000004H .rtc$TAA                DATA
 0002:0000354c 00000004H .rtc$TZZ                DATA
 0002:00003550 00000cfcH .xdata$x                DATA
 0002:0000424c 00000028H .idata$2                DATA
 0002:00004274 00000014H .idata$3                DATA
 0002:00004288 00000138H .idata$4                DATA
 0002:000043c0 0000057aH .idata$6                DATA
 0002:00004940 00000072H .edata                  DATA
 0003:00000000 00001c38H .data                   DATA
 0003:00001c40 00002100H .bss                    DATA
 0004:00000000 00000001H .tls                    DATA
 0004:00000001 00000001H .tls$ZZZ                DATA

  Address         Publics by Value              Rva+Base       Lib:Object

 0000:00000000       __except_list              00000000     <absolute>
 0000:00000020       ___safe_se_handler_count   00000020     <absolute>
 0000:00000000       ___ImageBase               10000000     <linker-defined>
 0001:00000000       ?UtlMemory_CalcNewAllocationCount@@YAHHHHH@Z 10001000 f i ILuaInterface.obj
 0001:00000033       ??0ILuaInterface@@QAE@PAUlua_State@@@Z 10001033 f   ILuaInterface.obj
 0001:00000126       ?GetNewTable@ILuaInterface@@QAEPAVILuaObject@@XZ 10001126 f   ILuaInterface.obj
 0001:0000016b       ?Error@ILuaInterface@@QAAXPBDZZ 1000116b f   ILuaInterface.obj
 0001:000001b4       ?GetGlobal@ILuaInterface@@QAEPAVILuaObject@@PBD@Z 100011b4 f   ILuaInterface.obj
 0001:0000021e       ?GetObject@ILuaInterface@@QAEPAVILuaObject@@H@Z 1000121e f   ILuaInterface.obj
 0001:00000271       ?DeleteLuaVector@ILuaInterface@@QAEXPAV?$CUtlVector@ULuaKeyValue@@V?$CUtlMemory@ULuaKeyValue@@H@@@@@Z 10001271 f   ILuaInterface.obj
 0001:000002d1       ?GetMetaTable@ILuaInterface@@QAEPAVILuaObject@@PBDH@Z 100012d1 f   ILuaInterface.obj
 0001:00000323       ?AddToTail@?$CUtlVector@ULuaKeyValue@@V?$CUtlMemory@ULuaKeyValue@@H@@@@QAEHABULuaKeyValue@@@Z 10001323 f i ILuaInterface.obj
 0001:00000387       ??1?$CUtlMemory@PAVNode@@H@@QAE@XZ 10001387 f i nav.obj
 0001:00000387       ??1?$CUtlMemory@ULuaKeyValue@@H@@QAE@XZ 10001387 f i ILuaInterface.obj
 0001:00000387       ??1?$CUtlMemory@PAUBorder@@H@@QAE@XZ 10001387 f i main.obj
 0001:0000038c       ?Purge@?$CUtlMemory@PAVNode@@H@@QAEXXZ 1000138c f i nav.obj
 0001:0000038c       ?Purge@?$CUtlMemory@PAUBorder@@H@@QAEXXZ 1000138c f i main.obj
 0001:0000038c       ?Purge@?$CUtlMemory@ULuaKeyValue@@H@@QAEXXZ 1000138c f i ILuaInterface.obj
 0001:000003ae       ?Grow@?$CUtlMemory@ULuaKeyValue@@H@@QAEXH@Z 100013ae f i ILuaInterface.obj
 0001:0000040c       ??1bad_alloc@std@@UAE@XZ   1000140c f i ILuaModuleManager.obj
 0001:00000417       ??_Ebad_alloc@std@@UAEPAXI@Z 10001417 f i  CIL library: CIL module
 0001:00000417       ??_Gbad_alloc@std@@UAEPAXI@Z 10001417 f i ILuaModuleManager.obj
 0001:0000043c       ??A?$map@PAUlua_State@@PAVILuaInterface@@U?$less@PAUlua_State@@@std@@V?$allocator@U?$pair@QAUlua_State@@PAVILuaInterface@@@std@@@4@@std@@QAEAAPAVILuaInterface@@ABQAUlua_State@@@Z 1000143c f i ILuaModuleManager.obj
 0001:000004a0       ?erase@?$_Tree@V?$_Tmap_traits@PAUlua_State@@PAVILuaInterface@@U?$less@PAUlua_State@@@std@@V?$allocator@U?$pair@QAUlua_State@@PAVILuaInterface@@@std@@@4@$0A@@std@@@std@@QAEIABQAUlua_State@@@Z 100014a0 f i ILuaModuleManager.obj
 0001:0000053e       ?erase@?$_Tree@V?$_Tmap_traits@PAUlua_State@@PAVILuaInterface@@U?$less@PAUlua_State@@@std@@V?$allocator@U?$pair@QAUlua_State@@PAVILuaInterface@@@std@@@4@$0A@@std@@@std@@QAE?AV?$_Tree_iterator@V?$_Tree_val@V?$_Tmap_traits@PAUlua_State@@PAVILuaInterface@@U?$less@PAUlua_State@@@std@@V?$allocator@U?$pair@QAUlua_State@@PAVILuaInterface@@@std@@@4@$0A@@std@@@std@@@2@V?$_Tree_const_iterator@V?$_Tree_val@V?$_Tmap_traits@PAUlua_State@@PAVILuaInterface@@U?$less@PAUlua_State@@@std@@V?$allocator@U?$pair@QAUlua_State@@PAVILuaInterface@@@std@@@4@$0A@@std@@@std@@@2@0@Z 1000153e f i ILuaModuleManager.obj
 0001:000005a5       ?erase@?$_Tree@V?$_Tmap_traits@PAUlua_State@@PAVILuaInterface@@U?$less@PAUlua_State@@@std@@V?$allocator@U?$pair@QAUlua_State@@PAVILuaInterface@@@std@@@4@$0A@@std@@@std@@QAE?AV?$_Tree_iterator@V?$_Tree_val@V?$_Tmap_traits@PAUlua_State@@PAVILuaInterface@@U?$less@PAUlua_State@@@std@@V?$allocator@U?$pair@QAUlua_State@@PAVILuaInterface@@@std@@@4@$0A@@std@@@std@@@2@V?$_Tree_const_iterator@V?$_Tree_val@V?$_Tmap_traits@PAUlua_State@@PAVILuaInterface@@U?$less@PAUlua_State@@@std@@V?$allocator@U?$pair@QAUlua_State@@PAVILuaInterface@@@std@@@4@$0A@@std@@@std@@@2@@Z 100015a5 f i ILuaModuleManager.obj
 0001:000007fa       ?_Erase@?$_Tree@V?$_Tmap_traits@PAUlua_State@@PAVILuaInterface@@U?$less@PAUlua_State@@@std@@V?$allocator@U?$pair@QAUlua_State@@PAVILuaInterface@@@std@@@4@$0A@@std@@@std@@IAEXPAU_Node@?$_Tree_nod@V?$_Tmap_traits@PAUlua_State@@PAVILuaInterface@@U?$less@PAUlua_State@@@std@@V?$allocator@U?$pair@QAUlua_State@@PAVILuaInterface@@@std@@@4@$0A@@std@@@2@@Z 100017fa f i ILuaModuleManager.obj
 0001:0000082f       ?_Lrotate@?$_Tree@V?$_Tmap_traits@PAUlua_State@@PAVILuaInterface@@U?$less@PAUlua_State@@@std@@V?$allocator@U?$pair@QAUlua_State@@PAVILuaInterface@@@std@@@4@$0A@@std@@@std@@IAEXPAU_Node@?$_Tree_nod@V?$_Tmap_traits@PAUlua_State@@PAVILuaInterface@@U?$less@PAUlua_State@@@std@@V?$allocator@U?$pair@QAUlua_State@@PAVILuaInterface@@@std@@@4@$0A@@std@@@2@@Z 1000182f f i ILuaModuleManager.obj
 0001:00000872       ?_Rrotate@?$_Tree@V?$_Tmap_traits@PAUlua_State@@PAVILuaInterface@@U?$less@PAUlua_State@@@std@@V?$allocator@U?$pair@QAUlua_State@@PAVILuaInterface@@@std@@@4@$0A@@std@@@std@@IAEXPAU_Node@?$_Tree_nod@V?$_Tmap_traits@PAUlua_State@@PAVILuaInterface@@U?$less@PAUlua_State@@@std@@V?$allocator@U?$pair@QAUlua_State@@PAVILuaInterface@@@std@@@4@$0A@@std@@@2@@Z 10001872 f i ILuaModuleManager.obj
 0001:000008b7       ?allocate@?$allocator@U_Node@?$_Tree_nod@V?$_Tmap_traits@PAUlua_State@@PAVILuaInterface@@U?$less@PAUlua_State@@@std@@V?$allocator@U?$pair@QAUlua_State@@PAVILuaInterface@@@std@@@4@$0A@@std@@@std@@@std@@QAEPAU_Node@?$_Tree_nod@V?$_Tmap_traits@PAUlua_State@@PAVILuaInterface@@U?$less@PAUlua_State@@@std@@V?$allocator@U?$pair@QAUlua_State@@PAVILuaInterface@@@std@@@4@$0A@@std@@@2@I@Z 100018b7 f i ILuaModuleManager.obj
 0001:000008ef       ??E?$_Tree_const_iterator@V?$_Tree_val@V?$_Tmap_traits@PAUlua_State@@PAVILuaInterface@@U?$less@PAUlua_State@@@std@@V?$allocator@U?$pair@QAUlua_State@@PAVILuaInterface@@@std@@@4@$0A@@std@@@std@@@std@@QAEAAV01@XZ 100018ef f i ILuaModuleManager.obj
 0001:00000925       ??0bad_alloc@std@@QAE@ABV01@@Z 10001925 f i ILuaModuleManager.obj
 0001:00000940       ?_Insert@?$_Tree@V?$_Tmap_traits@PAUlua_State@@PAVILuaInterface@@U?$less@PAUlua_State@@@std@@V?$allocator@U?$pair@QAUlua_State@@PAVILuaInterface@@@std@@@4@$0A@@std@@@std@@QAE?AV?$_Tree_iterator@V?$_Tree_val@V?$_Tmap_traits@PAUlua_State@@PAVILuaInterface@@U?$less@PAUlua_State@@@std@@V?$allocator@U?$pair@QAUlua_State@@PAVILuaInterface@@@std@@@4@$0A@@std@@@std@@@2@V?$_Tree_const_iterator@V?$_Tree_val@V?$_Tmap_traits@PAUlua_State@@PAVILuaInterface@@U?$less@PAUlua_State@@@std@@V?$allocator@U?$pair@QAUlua_State@@PAVILuaInterface@@@std@@@4@$0A@@std@@@std@@@2@PAU_Node@?$_Tree_nod@V?$_Tmap_traits@PAUlua_State@@PAVILuaInterface@@U?$less@PAUlua_State@@@std@@V?$allocator@U?$pair@QAUlua_State@@PAVILuaInterface@@@std@@@4@$0A@@std@@@2@@Z 10001940 f i ILuaModuleManager.obj
 0001:00000a3a       ?_Linsert@?$_Tree@V?$_Tmap_traits@PAUlua_State@@PAVILuaInterface@@U?$less@PAUlua_State@@@std@@V?$allocator@U?$pair@QAUlua_State@@PAVILuaInterface@@@std@@@4@$0A@@std@@@std@@QAE?AU?$pair@V?$_Tree_iterator@V?$_Tree_val@V?$_Tmap_traits@PAUlua_State@@PAVILuaInterface@@U?$less@PAUlua_State@@@std@@V?$allocator@U?$pair@QAUlua_State@@PAVILuaInterface@@@std@@@4@$0A@@std@@@std@@@std@@_N@2@PAU_Node@?$_Tree_nod@V?$_Tmap_traits@PAUlua_State@@PAVILuaInterface@@U?$less@PAUlua_State@@@std@@V?$allocator@U?$pair@QAUlua_State@@PAVILuaInterface@@@std@@@4@$0A@@std@@@2@_N@Z 10001a3a f i ILuaModuleManager.obj
 0001:00000ad4       ?_Insert@?$_Tree@V?$_Tmap_traits@PAUlua_State@@PAVILuaInterface@@U?$less@PAUlua_State@@@std@@V?$allocator@U?$pair@QAUlua_State@@PAVILuaInterface@@@std@@@4@$0A@@std@@@std@@IAE?AV?$_Tree_iterator@V?$_Tree_val@V?$_Tmap_traits@PAUlua_State@@PAVILuaInterface@@U?$less@PAUlua_State@@@std@@V?$allocator@U?$pair@QAUlua_State@@PAVILuaInterface@@@std@@@4@$0A@@std@@@std@@@2@_NPAU_Node@?$_Tree_nod@V?$_Tmap_traits@PAUlua_State@@PAVILuaInterface@@U?$less@PAUlua_State@@@std@@V?$allocator@U?$pair@QAUlua_State@@PAVILuaInterface@@@std@@@4@$0A@@std@@@2@1@Z 10001ad4 f i ILuaModuleManager.obj
 0001:00000bf2       ??F?$_Tree_const_iterator@V?$_Tree_val@V?$_Tmap_traits@PAUlua_State@@PAVILuaInterface@@U?$less@PAUlua_State@@@std@@V?$allocator@U?$pair@QAUlua_State@@PAVILuaInterface@@@std@@@4@$0A@@std@@@std@@@std@@QAEAAV01@XZ 10001bf2 f i ILuaModuleManager.obj
 0001:00000c33       ??$_Buynode@U?$pair@QAUlua_State@@PAVILuaInterface@@@std@@@?$_Tree_val@V?$_Tmap_traits@PAUlua_State@@PAVILuaInterface@@U?$less@PAUlua_State@@@std@@V?$allocator@U?$pair@QAUlua_State@@PAVILuaInterface@@@std@@@4@$0A@@std@@@std@@QAEPAU_Node@?$_Tree_nod@V?$_Tmap_traits@PAUlua_State@@PAVILuaInterface@@U?$less@PAUlua_State@@@std@@V?$allocator@U?$pair@QAUlua_State@@PAVILuaInterface@@@std@@@4@$0A@@std@@@1@$$QAU?$pair@QAUlua_State@@PAVILuaInterface@@@1@@Z 10001c33 f i ILuaModuleManager.obj
 0001:00000c61       ?UnReference@ILuaObject@@QAEXXZ 10001c61 f   ILuaObject.obj
 0001:00000c76       ?GetType@ILuaObject@@QAEHXZ 10001c76 f   ILuaObject.obj
 0001:00000c99       ?GetMembers@ILuaObject@@QAEPAV?$CUtlVector@ULuaKeyValue@@V?$CUtlMemory@ULuaKeyValue@@H@@@@XZ 10001c99 f   ILuaObject.obj
 0001:00000d7f       ?SetMember@ILuaObject@@QAEXPBDP6AHPAUlua_State@@@Z@Z 10001d7f f   ILuaObject.obj
 0001:00000db8       ?SetMember@ILuaObject@@QAEXNPAV1@@Z 10001db8 f   ILuaObject.obj
 0001:00000def       ?GetMember@ILuaObject@@QAEPAV1@N@Z 10001def f   ILuaObject.obj
 0001:00000e5b       ?Push@ILuaObject@@QAEXXZ   10001e5b f   ILuaObject.obj
 0001:00000fd6       _kd_nearest                10001fd6 f   kdtree.obj
 0001:000010d5       _kd_res_free               100020d5 f   kdtree.obj
 0001:000011f1       ?pow@@YAMMH@Z              100021f1 f i nav.obj
 0001:0000122b       ??1exception@boost@@MAE@XZ 1000222b f i nav.obj
 0001:00001239       ??1clone_base@exception_detail@boost@@UAE@XZ 10002239 f i nav.obj
 0001:00001240       ??_Gclone_base@exception_detail@boost@@UAEPAXI@Z 10002240 f i nav.obj
 0001:00001240       ??_Eclone_base@exception_detail@boost@@UAEPAXI@Z 10002240 f i  CIL library: CIL module
 0001:00001260       ?copy_boost_exception@exception_detail@boost@@YAXPAVexception@2@PBV32@@Z 10002260 f i nav.obj
 0001:000012f4       ?release@sp_counted_base@detail@boost@@QAEXXZ 100022f4 f i nav.obj
 0001:00001320       ??1shared_count@detail@boost@@QAE@XZ 10002320 f i nav.obj
 0001:0000132c       ?intrusive_ptr_release@@YAXPAUthread_data_base@detail@boost@@@Z 1000232c f i nav.obj
 0001:00001347       ?LUA_GetNav@@YAPAVNav@@PAUlua_State@@H@Z 10002347 f   nav.obj
 0001:00001394       ?Reset@Nav@@QAEXXZ         10002394 f   nav.obj
 0001:000013bc       ?AddOpenedNode@Nav@@QAEXPAVNode@@@Z 100023bc f   nav.obj
 0001:000013e1       ?AddClosedNode@Nav@@QAEXPAVNode@@@Z 100023e1 f   nav.obj
 0001:00001423       ?EuclideanDistance@Nav@@QAEMPBVVector@@0@Z 10002423 f   nav.obj
 0001:00001483       ??1?$basic_string@DU?$char_traits@D@std@@V?$allocator@D@2@@std@@QAE@XZ 10002483 f i nav.obj
 0001:0000148d       ??1?$refcount_ptr@Uerror_info_container@exception_detail@boost@@@exception_detail@boost@@QAE@XZ 1000248d f i nav.obj
 0001:00001492       ??1?$intrusive_ptr@Uthread_data_base@detail@boost@@@boost@@QAE@XZ 10002492 f i nav.obj
 0001:000014a0       ?_Tidy@?$basic_string@DU?$char_traits@D@std@@V?$allocator@D@2@@std@@QAEX_NI@Z 100024a0 f i nav.obj
 0001:000014e4       ?release@?$refcount_ptr@Uerror_info_container@exception_detail@boost@@@exception_detail@boost@@AAEXXZ 100024e4 f i nav.obj
 0001:000014fb       ?assign@?$basic_string@DU?$char_traits@D@std@@V?$allocator@D@2@@std@@QAEAAV12@PBDI@Z 100024fb f i nav.obj
 0001:00001570       ?assign@?$basic_string@DU?$char_traits@D@std@@V?$allocator@D@2@@std@@QAEAAV12@ABV12@II@Z 10002570 f i nav.obj
 0001:00001609       ?_Grow@?$basic_string@DU?$char_traits@D@std@@V?$allocator@D@2@@std@@QAE_NI_N@Z 10002609 f i nav.obj
 0001:0000166d       ?_Inside@?$basic_string@DU?$char_traits@D@std@@V?$allocator@D@2@@std@@QAE_NPBD@Z 1000266d f i nav.obj
 0001:000016a8       ?erase@?$_Tree@V?$_Tmap_traits@PBXUtss_data_node@detail@boost@@U?$less@PBX@std@@V?$allocator@U?$pair@QBXUtss_data_node@detail@boost@@@std@@@5@$0A@@std@@@std@@QAE?AV?$_Tree_iterator@V?$_Tree_val@V?$_Tmap_traits@PBXUtss_data_node@detail@boost@@U?$less@PBX@std@@V?$allocator@U?$pair@QBXUtss_data_node@detail@boost@@@std@@@5@$0A@@std@@@std@@@2@V?$_Tree_const_iterator@V?$_Tree_val@V?$_Tmap_traits@PBXUtss_data_node@detail@boost@@U?$less@PBX@std@@V?$allocator@U?$pair@QBXUtss_data_node@detail@boost@@@std@@@5@$0A@@std@@@std@@@2@@Z 100026a8 f i nav.obj
 0001:000018fc       ?erase@?$basic_string@DU?$char_traits@D@std@@V?$allocator@D@2@@std@@QAEAAV12@II@Z 100028fc f i nav.obj
 0001:00001974       ?_Copy@?$basic_string@DU?$char_traits@D@std@@V?$allocator@D@2@@std@@QAEXII@Z 10002974 f i nav.obj
 0001:00001a57       ?_Lrotate@?$_Tree@V?$_Tmap_traits@PBXUtss_data_node@detail@boost@@U?$less@PBX@std@@V?$allocator@U?$pair@QBXUtss_data_node@detail@boost@@@std@@@5@$0A@@std@@@std@@IAEXPAU_Node@?$_Tree_nod@V?$_Tmap_traits@PBXUtss_data_node@detail@boost@@U?$less@PBX@std@@V?$allocator@U?$pair@QBXUtss_data_node@detail@boost@@@std@@@5@$0A@@std@@@2@@Z 10002a57 f i nav.obj
 0001:00001a9c       ?_Rrotate@?$_Tree@V?$_Tmap_traits@PBXUtss_data_node@detail@boost@@U?$less@PBX@std@@V?$allocator@U?$pair@QBXUtss_data_node@detail@boost@@@std@@@5@$0A@@std@@@std@@IAEXPAU_Node@?$_Tree_nod@V?$_Tmap_traits@PBXUtss_data_node@detail@boost@@U?$less@PBX@std@@V?$allocator@U?$pair@QBXUtss_data_node@detail@boost@@@std@@@5@$0A@@std@@@2@@Z 10002a9c f i nav.obj
 0001:00001ae3       ??E?$_Tree_unchecked_const_iterator@V?$_Tree_val@V?$_Tmap_traits@PBXUtss_data_node@detail@boost@@U?$less@PBX@std@@V?$allocator@U?$pair@QBXUtss_data_node@detail@boost@@@std@@@5@$0A@@std@@@std@@U_Iterator_base0@2@@std@@QAEAAV01@XZ 10002ae3 f i nav.obj
 0001:00001b1e       ??$heap_delete@Uthread_data_base@detail@boost@@@detail@boost@@YAXPAUthread_data_base@01@@Z 10002b1e f i nav.obj
 0001:00001b40       ??1?$CUtlVector@PAUBorder@@V?$CUtlMemory@PAUBorder@@H@@@@QAE@XZ 10002b40 f i main.obj
 0001:00001b40       ??1?$CUtlVector@PAVNode@@V?$CUtlMemory@PAVNode@@H@@@@QAE@XZ 10002b40 f i nav.obj
 0001:00001b72       ?Remove@?$CUtlVector@PAVNode@@V?$CUtlMemory@PAVNode@@H@@@@QAEXH@Z 10002b72 f i nav.obj
 0001:00001b96       ??$_Allocate@D@std@@YAPADIPAD@Z 10002b96 f i nav.obj
 0001:00001bdd       ??0exception@boost@@QAE@ABV01@@Z 10002bdd f i nav.obj
 0001:00001c16       ??0clone_base@exception_detail@boost@@QAE@ABV012@@Z 10002c16 f i nav.obj
 0001:00001c21       ?InsertBefore@?$CUtlVector@PAVNode@@V?$CUtlMemory@PAVNode@@H@@@@QAEHHABQAVNode@@@Z 10002c21 f i nav.obj
 0001:00001c79       ??_G?$pair@QBXUtss_data_node@detail@boost@@@std@@QAEPAXI@Z 10002c79 f i nav.obj
 0001:00001c9f       _gmod13_open               10002c9f f   main.obj
 0001:00001ce3       _gmod13_close              10002ce3 f   main.obj
 0001:00001d73       ?NewVectorObject@@YAPAVILuaObject@@PAUlua_State@@ABVVector@@@Z 10002d73 f   main.obj
 0001:00001ee0       ?LUA_PushVector@@YAXPAUlua_State@@ABVVector@@@Z 10002ee0 f   main.obj
 0001:00001f12       ?AddConnection@@YAXPAUlua_State@@AAV?$CUtlVector@PAUBorder@@V?$CUtlMemory@PAUBorder@@H@@@@PAVNode@@W4NavDirType@@3@Z 10002f12 f   main.obj
 0001:000020f3       ?IsTerritory@@YA_NPAVNode@@W4NavDirType@@H@Z 100030f3 f   main.obj
 0001:0000211a       ?MakeConnections@@YAXPAUlua_State@@AAV?$CUtlVector@PAUBorder@@V?$CUtlMemory@PAUBorder@@H@@@@PAVNode@@@Z 1000311a f   main.obj
 0001:00002565       ?Nav_Flood@@YAHPAUlua_State@@@Z 10003565 f   main.obj
 0001:00002d7a       ?Nav_GetTerritory@@YAHPAUlua_State@@@Z 10003d7a f   main.obj
 0001:00002e93       ?Init@@YAHPAUlua_State@@@Z 10003e93 f   main.obj
 0001:00002f43       ?AddToTail@?$CUtlVector@PAUBorder@@V?$CUtlMemory@PAUBorder@@H@@@@QAEHABQAUBorder@@@Z 10003f43 f i main.obj
 0001:00002f9f       ?FindAndRemove@?$CUtlVector@PAUBorder@@V?$CUtlMemory@PAUBorder@@H@@@@QAE_NABQAUBorder@@@Z 10003f9f f i main.obj
 0001:00002fe8       ?Grow@?$CUtlMemory@PAUBorder@@H@@QAEXH@Z 10003fe8 f i main.obj
 0001:00002fe8       ?Grow@?$CUtlMemory@PAVNode@@H@@QAEXH@Z 10003fe8 f i nav.obj
 0001:00003046       ??1out_of_range@std@@UAE@XZ 10004046 f i libcpmt:xthrow.obj
 0001:00003046       ??1length_error@std@@UAE@XZ 10004046 f i libcpmt:xthrow.obj
 0001:0000304b       ??0logic_error@std@@QAE@ABV01@@Z 1000404b f i libcpmt:xthrow.obj
 0001:00003068       ?_Xlength_error@std@@YAXPBD@Z 10004068 f   libcpmt:xthrow.obj
 0001:00003098       ??0length_error@std@@QAE@ABV01@@Z 10004098 f i libcpmt:xthrow.obj
 0001:000030b5       ?_Xout_of_range@std@@YAXPBD@Z 100040b5 f   libcpmt:xthrow.obj
 0001:000030e5       ??0out_of_range@std@@QAE@ABV01@@Z 100040e5 f i libcpmt:xthrow.obj
 0001:00003102       ??_Gout_of_range@std@@UAEPAXI@Z 10004102 f i libcpmt:xthrow.obj
 0001:00003102       ??_Elogic_error@std@@UAEPAXI@Z 10004102 f i libcpmt:xthrow.obj
 0001:00003102       ??_Glength_error@std@@UAEPAXI@Z 10004102 f i libcpmt:xthrow.obj
 0001:00003102       ??_Glogic_error@std@@UAEPAXI@Z 10004102 f i libcpmt:xthrow.obj
 0001:00003102       ??_Eout_of_range@std@@UAEPAXI@Z 10004102 f i libcpmt:xthrow.obj
 0001:00003102       ??_Elength_error@std@@UAEPAXI@Z 10004102 f i libcpmt:xthrow.obj
 0001:00003123       @__security_check_cookie@4 10004123 f   LIBCMT:secchk.obj
 0001:00003140       _memmove                   10004140 f   LIBCMT:memmove.obj
 0001:000034a1       __vsnprintf_helper         100044a1 f   LIBCMT:vsnprnc.obj
 0001:0000356b       __vsprintf_s_l             1000456b f   LIBCMT:vsnprnc.obj
 0001:000035e2       _vsprintf_s                100045e2 f   LIBCMT:vsnprnc.obj
 0001:000035ff       ??3@YAXPAX@Z               100045ff f   LIBCMT:delete.obj
 0001:0000360a       ??2@YAPAXI@Z               1000460a f   LIBCMT:new.obj
 0001:0000368a       ??0exception@std@@QAE@ABQBDH@Z 1000468a f   LIBCMT:stdexcpt.obj
 0001:000036a7       ?what@exception@std@@UBEPBDXZ 100046a7 f   LIBCMT:stdexcpt.obj
 0001:000036b4       ?_Copy_str@exception@std@@AAEXPBD@Z 100046b4 f   LIBCMT:stdexcpt.obj
 0001:000036f4       ?_Tidy@exception@std@@AAEXXZ 100046f4 f   LIBCMT:stdexcpt.obj
 0001:00003712       ??0exception@std@@QAE@ABQBD@Z 10004712 f   LIBCMT:stdexcpt.obj
 0001:00003739       ??4exception@std@@QAEAAV01@ABV01@@Z 10004739 f   LIBCMT:stdexcpt.obj
 0001:0000376e       ??1exception@std@@UAE@XZ   1000476e f   LIBCMT:stdexcpt.obj
 0001:00003779       ??_Eexception@std@@UAEPAXI@Z 10004779 f i LIBCMT:stdexcpt.obj
 0001:00003779       ??_Gexception@std@@UAEPAXI@Z 10004779 f i LIBCMT:stdexcpt.obj
 0001:000037a0       ??0exception@std@@QAE@ABV01@@Z 100047a0 f   LIBCMT:stdexcpt.obj
 0001:000037c5       ??1type_info@@UAE@XZ       100047c5 f   LIBCMT:typinfo.obj
 0001:000037d5       ??_Gtype_info@@UAEPAXI@Z   100047d5 f i LIBCMT:typinfo.obj
 0001:000037d5       ??_Etype_info@@UAEPAXI@Z   100047d5 f i LIBCMT:typinfo.obj
 0001:000037f6       ??8type_info@@QBE_NABV0@@Z 100047f6 f   LIBCMT:typinfo.obj
 0001:00003816       _free                      10004816 f   LIBCMT:free.obj
 0001:00003850       _malloc                    10004850 f   LIBCMT:malloc.obj
 0001:000038e4       __purecall                 100048e4 f   LIBCMT:purevirt.obj
 0001:0000390e       __fclose_nolock            1000490e f   LIBCMT:fclose.obj
 0001:0000397b       _fclose                    1000497b f   LIBCMT:fclose.obj
 0001:000039ef       __CRT_INIT@12              100049ef f   LIBCMT:dllcrt0.obj
 0001:00003c49       __DllMainCRTStartup@12     10004c49 f   LIBCMT:dllcrt0.obj
 0001:00003c80       _strchr                    10004c80 f   LIBCMT:strchr.obj
 0001:00003c86       ___from_strstr_to_strchr   10004c86     LIBCMT:strchr.obj
 0001:00003d40       _strstr                    10004d40 f   LIBCMT:strstr.obj
 0001:00003dc6       __cfltcvt_init             10004dc6 f   LIBCMT:_fpinit_.obj
 0001:00003e26       __fpmath                   10004e26 f   LIBCMT:_fpinit_.obj
 0001:00003e40       _memcpy                    10004e40 f   LIBCMT:memcpy.obj
 0001:000041a1       ??0_LocaleUpdate@@QAE@PAUlocaleinfo_struct@@@Z 100051a1 f i LIBCMT:_ctype.obj
 0001:00004228       __isdigit_l                10005228 f i LIBCMT:_ctype.obj
 0001:00004279       _isdigit                   10005279 f i LIBCMT:_ctype.obj
 0001:000042b0       _memset                    100052b0 f   LIBCMT:memset.obj
 0001:0000432a       __freea                    1000532a f i LIBCMT:wcsupr.obj
 0001:0000434a       __tolower_l                1000534a f   LIBCMT:tolower.obj
 0001:0000445f       _tolower                   1000545f f   LIBCMT:tolower.obj
 0001:00004490       __allmul                   10005490 f   LIBCMT:llmul.obj
 0001:000044d0       _strncpy                   100054d0 f   LIBCMT:strncpy.obj
 0001:00004600       _strncat                   10005600 f   LIBCMT:strncat.obj
 0001:00004740       __aulldiv                  10005740 f   LIBCMT:ulldiv.obj
 0001:000047a8       __isleadbyte_l             100057a8 f i LIBCMT:_wctype.obj
 0001:000047e0       _isleadbyte                100057e0 f i LIBCMT:_wctype.obj
 0001:00004800       __alloca_probe_16          10005800 f   LIBCMT:alloca16.obj
 0001:00004816       __alloca_probe_8           10005816     LIBCMT:alloca16.obj
 0001:0000482c       __CxxThrowException@8      1000582c f   LIBCMT:throw.obj
 0001:00004878       ___report_gsfailure        10005878 f   LIBCMT:gs_report.obj
 0001:0000497e       __VEC_memcpy               1000597e f   LIBCMT:p4_memcpy.obj
 0001:00004a81       ___sse2_available_init     10005a81 f   LIBCMT:cpu_disp.obj
 0001:00004a91       __flsbuf                   10005a91 f   LIBCMT:_flsbuf.obj
 0001:00004bf5       __initp_misc_invarg        10005bf5 f   LIBCMT:invarg.obj
 0001:00004c04       __call_reportfault         10005c04 f   LIBCMT:invarg.obj
 0001:00004d2d       __invoke_watson            10005d2d f   LIBCMT:invarg.obj
 0001:00004d52       __invalid_parameter        10005d52 f   LIBCMT:invarg.obj
 0001:00004d7f       __invalid_parameter_noinfo 10005d7f f   LIBCMT:invarg.obj
 0001:00004d8f       __get_errno_from_oserr     10005d8f f   LIBCMT:dosmap.obj
 0001:00004dd1       __errno                    10005dd1 f   LIBCMT:dosmap.obj
 0001:00004de4       ___doserrno                10005de4 f   LIBCMT:dosmap.obj
 0001:00004df7       __dosmaperr                10005df7 f   LIBCMT:dosmap.obj
 0001:00004eaf       __output_s_l               10005eaf f   LIBCMT:outputs.obj
 0001:00005b99       ___onexitinit              10006b99 f   LIBCMT:onexit.obj
 0001:00005bca       __onexit                   10006bca f   LIBCMT:onexit.obj
 0001:00005c06       _atexit                    10006c06 f   LIBCMT:onexit.obj
 0001:00005c1d       __initp_heap_handler       10006c1d f   LIBCMT:handler.obj
 0001:00005c2c       __callnewh                 10006c2c f   LIBCMT:handler.obj
 0001:00005c54       _strcpy_s                  10006c54 f   LIBCMT:strcpy_s.obj
 0001:00005cc0       _strlen                    10006cc0 f   LIBCMT:strlen.obj
 0001:00005d4b       ?_Type_info_dtor@type_info@@CAXPAV1@@Z 10006d4b f   LIBCMT:typname.obj
 0001:00005dc0       _strcmp                    10006dc0 f   LIBCMT:strcmp.obj
 0001:00005e48       __heap_init                10006e48 f   LIBCMT:heapinit.obj
 0001:00005e66       __heap_term                10006e66 f   LIBCMT:heapinit.obj
 0001:00005e7a       ___crtCorExitProcess       10006e7a f   LIBCMT:crt0dat.obj
 0001:00005ea5       ___crtExitProcess          10006ea5 f   LIBCMT:crt0dat.obj
 0001:00005ebd       __lockexit                 10006ebd f   LIBCMT:crt0dat.obj
 0001:00005ec6       __unlockexit               10006ec6 f   LIBCMT:crt0dat.obj
 0001:00005ecf       __init_pointers            10006ecf f   LIBCMT:crt0dat.obj
 0001:00005f02       __initterm_e               10006f02 f   LIBCMT:crt0dat.obj
 0001:00005f26       __cinit                    10006f26 f   LIBCMT:crt0dat.obj
 0001:00006100       __exit                     10007100 f   LIBCMT:crt0dat.obj
 0001:00006116       __cexit                    10007116 f   LIBCMT:crt0dat.obj
 0001:00006125       __amsg_exit                10007125 f   LIBCMT:crt0dat.obj
 0001:00006143       __GET_RTERRMSG             10007143 f   LIBCMT:crt0msg.obj
 0001:00006169       __NMSG_WRITE               10007169 f   LIBCMT:crt0msg.obj
 0001:00006318       __FF_MSGBANNER             10007318 f   LIBCMT:crt0msg.obj
 0001:00006351       ___iob_func                10007351 f   LIBCMT:_file.obj
 0001:00006357       ___initstdio               10007357 f   LIBCMT:_file.obj
 0001:00006408       ___endstdio                10007408 f   LIBCMT:_file.obj
 0001:00006428       __lock_file                10007428 f   LIBCMT:_file.obj
 0001:00006469       __lock_file2               10007469 f   LIBCMT:_file.obj
 0001:0000649b       __unlock_file              1000749b f   LIBCMT:_file.obj
 0001:000064d7       __unlock_file2             100074d7 f   LIBCMT:_file.obj
 0001:00006506       __ioinit                   10007506 f   LIBCMT:ioinit.obj
 0001:0000674b       __ioterm                   1000774b f   LIBCMT:ioinit.obj
 0001:0000679e       __fileno                   1000779e f   LIBCMT:fileno.obj
 0001:000067d0       __SEH_prolog4              100077d0 f   LIBCMT:sehprolg4.obj
 0001:00006815       __SEH_epilog4              10007815 f   LIBCMT:sehprolg4.obj
 0001:00006830       __except_handler4          10007830 f   LIBCMT:chandler4.obj
 0001:000069c0       __local_unwind4            100079c0 f   LIBCMT:exsup4.obj
 0001:00006a96       __seh_longjmp_unwind4@4    10007a96 f   LIBCMT:exsup4.obj
 0001:00006ab2       @_EH4_CallFilterFunc@8     10007ab2 f   LIBCMT:exsup4.obj
 0001:00006ac9       @_EH4_TransferToHandler@8  10007ac9 f   LIBCMT:exsup4.obj
 0001:00006ae2       @_EH4_GlobalUnwind2@8      10007ae2 f   LIBCMT:exsup4.obj
 0001:00006afb       @_EH4_LocalUnwind@16       10007afb f   LIBCMT:exsup4.obj
 0001:00006b12       _abort                     10007b12 f   LIBCMT:abort.obj
 0001:00006b45       __set_abort_behavior       10007b45 f   LIBCMT:abort.obj
 0001:00006b66       __initp_misc_purevirt      10007b66 f   LIBCMT:inithelp.obj
 0001:00006b75       __close_nolock             10007b75 f   LIBCMT:close.obj
 0001:00006c11       __close                    10007c11 f   LIBCMT:close.obj
 0001:00006cd5       __freebuf                  10007cd5 f   LIBCMT:_freebuf.obj
 0001:00006d06       __flush                    10007d06 f   LIBCMT:fflush.obj
 0001:00006d6e       __fflush_nolock            10007d6e f   LIBCMT:fflush.obj
 0001:00006e90       __flushall                 10007e90 f   LIBCMT:fflush.obj
 0001:00006e99       __encoded_null             10007e99 f   LIBCMT:tidtable.obj
 0001:00006ea2       ___crtTlsAlloc@4           10007ea2 f   LIBCMT:tidtable.obj
 0001:00006eab       ___set_flsgetvalue         10007eab f   LIBCMT:tidtable.obj
 0001:00006edf       __mtterm                   10007edf f   LIBCMT:tidtable.obj
 0001:00006f1c       __initptd                  10007f1c f   LIBCMT:tidtable.obj
 0001:00006fd0       __getptd_noexit            10007fd0 f   LIBCMT:tidtable.obj
 0001:00007049       __getptd                   10008049 f   LIBCMT:tidtable.obj
 0001:00007063       __freefls@4                10008063 f   LIBCMT:tidtable.obj
 0001:00007192       __freeptd                  10008192 f   LIBCMT:tidtable.obj
 0001:00007200       __mtinit                   10008200 f   LIBCMT:tidtable.obj
 0001:0000737b       __malloc_crt               1000837b f   LIBCMT:crtheap.obj
 0001:000073c0       __calloc_crt               100083c0 f   LIBCMT:crtheap.obj
 0001:0000740c       __realloc_crt              1000840c f   LIBCMT:crtheap.obj
 0001:0000745a       __setenvp                  1000845a f   LIBCMT:stdenvp.obj
 0001:000076d0       __setargv                  100086d0 f   LIBCMT:stdargv.obj
 0001:0000778b       ___crtGetEnvironmentStringsA 1000878b f   LIBCMT:a_env.obj
 0001:00007822       __RTC_Initialize           10008822 f   LIBCMT:_initsect_.obj
 0001:00007848       __RTC_Terminate            10008848 f   LIBCMT:_initsect_.obj
 0001:0000786e       __XcptFilter               1000886e f   LIBCMT:winxfltr.obj
 0001:000079b8       ___CppXcptFilter           100089b8 f   LIBCMT:winxfltr.obj
 0001:000079d8       _DllMain@12                100089d8 f   LIBCMT:dllmain.obj
 0001:000079de       ___security_init_cookie    100089de f   LIBCMT:gs_support.obj
 0001:00007a79       __forcdecpt_l              10008a79 f   LIBCMT:cvt.obj
 0001:00007aed       __cropzeros_l              10008aed f   LIBCMT:cvt.obj
 0001:00007b6f       __positive                 10008b6f f   LIBCMT:cvt.obj
 0001:00007b8b       __fassign_l                10008b8b f   LIBCMT:cvt.obj
 0001:00007bcd       __fassign                  10008bcd f   LIBCMT:cvt.obj
 0001:00007c06       __forcdecpt                10008c06 f   LIBCMT:cvt.obj
 0001:00007c19       __cropzeros                10008c19 f   LIBCMT:cvt.obj
 0001:00007d8d       __cftoe_l                  10008d8d f   LIBCMT:cvt.obj
 0001:00007e54       __cftoe                    10008e54 f   LIBCMT:cvt.obj
 0001:00007e74       __cftoa_l                  10008e74 f   LIBCMT:cvt.obj
 0001:000082ed       __cftof_l                  100092ed f   LIBCMT:cvt.obj
 0001:000083ae       __cftog_l                  100093ae f   LIBCMT:cvt.obj
 0001:0000849b       __cfltcvt_l                1000949b f   LIBCMT:cvt.obj
 0001:00008523       __cfltcvt                  10009523 f   LIBCMT:cvt.obj
 0001:00008546       __initp_misc_cfltcvt_tab   10009546 f   LIBCMT:cmiscdat.obj
 0001:00008569       __setdefaultprecision      10009569 f   LIBCMT:fp8.obj
 0001:000087b4       ___updatetmbcinfo          100097b4 f   LIBCMT:mbctype.obj
 0001:000088d4       __setmbcp_nolock           100098d4 f   LIBCMT:mbctype.obj
 0001:00008abd       __setmbcp                  10009abd f   LIBCMT:mbctype.obj
 0001:00008c57       ___initmbctable            10009c57 f   LIBCMT:mbctype.obj
 0001:00008c75       ___addlocaleref            10009c75 f   LIBCMT:localref.obj
 0001:00008d04       ___removelocaleref         10009d04 f   LIBCMT:localref.obj
 0001:00008d9d       ___freetlocinfo            10009d9d f   LIBCMT:localref.obj
 0001:00008ee8       __updatetlocinfoEx_nolock  10009ee8 f   LIBCMT:localref.obj
 0001:00008f35       ___updatetlocinfo          10009f35 f   LIBCMT:localref.obj
 0001:00008fae       __isctype_l                10009fae f   LIBCMT:isctype.obj
 0001:00009066       __VEC_memzero              1000a066 f   LIBCMT:p4_memset.obj
 0001:00009120       _wcscpy_s                  1000a120 f   LIBCMT:wcscpy_s.obj
 0001:0000936a       ___crtLCMapStringA         1000a36a f   LIBCMT:a_map.obj
 0001:000093b0       __chkstk                   1000a3b0 f   LIBCMT:chkstk.obj
 0001:000093b0       __alloca_probe             1000a3b0     LIBCMT:chkstk.obj
 0001:000093db       __mtinitlocks              1000a3db f   LIBCMT:mlock.obj
 0001:00009425       __mtdeletelocks            1000a425 f   LIBCMT:mlock.obj
 0001:0000947c       __unlock                   1000a47c f   LIBCMT:mlock.obj
 0001:00009493       __mtinitlocknum            1000a493 f   LIBCMT:mlock.obj
 0001:00009555       __lock                     1000a555 f   LIBCMT:mlock.obj
 0001:00009588       __crt_debugger_hook        1000a588 f   LIBCMT:dbghook.obj
 0001:00009590       __lseeki64_nolock          1000a590 f   LIBCMT:lseeki64.obj
 0001:00009615       __lseeki64                 1000a615 f   LIBCMT:lseeki64.obj
 0001:000096ff       __write_nolock             1000a6ff f   LIBCMT:write.obj
 0001:00009dfc       __write                    1000adfc f   LIBCMT:write.obj
 0001:00009ed0       __getbuf                   1000aed0 f   LIBCMT:_getbuf.obj
 0001:00009f19       __isatty                   1000af19 f   LIBCMT:isatty.obj
 0001:00009f6f       __get_printf_count_output  1000af6f f   LIBCMT:printf.obj
 0001:00009f85       __wctomb_s_l               1000af85 f   LIBCMT:wctomb.obj
 0001:0000a0da       _wctomb_s                  1000b0da f   LIBCMT:wctomb.obj
 0001:0000a100       __aulldvrm                 1000b100 f   LIBCMT:ulldvrm.obj
 0001:0000a195       __msize                    1000b195 f   LIBCMT:msize.obj
 0001:0000a1c8       ?terminate@@YAXXZ          1000b1c8 f   LIBCMT:hooks.obj
 0001:0000a201       ?unexpected@@YAXXZ         1000b201 f   LIBCMT:hooks.obj
 0001:0000a214       ?_inconsistency@@YAXXZ     1000b214 f   LIBCMT:hooks.obj
 0001:0000a24c       __initp_eh_hooks           1000b24c f   LIBCMT:hooks.obj
 0001:0000a25d       __initp_misc_winsig        1000b25d f   LIBCMT:winsig.obj
 0001:0000a2b2       ___get_sigabrt             1000b2b2 f   LIBCMT:winsig.obj
 0001:0000a2bf       _raise                     1000b2bf f   LIBCMT:winsig.obj
 0001:0000a462       __initp_misc_rand_s        1000b462 f   LIBCMT:rand_s.obj
 0001:0000a480       __ValidateImageBase        1000b480 f   LIBCMT:pesect.obj
 0001:0000a4c0       __FindPESection            1000b4c0 f   LIBCMT:pesect.obj
 0001:0000a510       __IsNonwritableInCurrentImage 1000b510 f   LIBCMT:pesect.obj
 0001:0000a5cc       ___crtMessageBoxW          1000b5cc f   LIBCMT:crtmboxw.obj
 0001:0000a738       _wcscat_s                  1000b738 f   LIBCMT:wcscat_s.obj
 0001:0000a7ad       _wcsncpy_s                 1000b7ad f   LIBCMT:wcsncpy_s.obj
 0001:0000a87a       _wcslen                    1000b87a f   LIBCMT:wcslen.obj
 0001:0000a895       __set_error_mode           1000b895 f   LIBCMT:errmode.obj
 0001:0000a8d4       __fcloseall                1000b8d4 f   LIBCMT:closeall.obj
 0001:0000a970       __mbtowc_l                 1000b970 f   LIBCMT:mbtowc.obj
 0001:0000aa86       _mbtowc                    1000ba86 f   LIBCMT:mbtowc.obj
 0001:0000aaa0       __global_unwind2           1000baa0 f   LIBCMT:exsup.obj
 0001:0000ab05       __local_unwind2            1000bb05 f   LIBCMT:exsup.obj
 0001:0000ab89       __abnormal_termination     1000bb89 f   LIBCMT:exsup.obj
 0001:0000abac       __NLG_Notify1              1000bbac f   LIBCMT:exsup.obj
 0001:0000abb5       __NLG_Notify               1000bbb5 f   LIBCMT:exsup.obj
 0001:0000abcc       __NLG_Dispatch2            1000bbcc     LIBCMT:exsup.obj
 0001:0000abcc       __NLG_Dispatch             1000bbcc     LIBCMT:exsup.obj
 0001:0000abd4       __NLG_Call                 1000bbd4 f   LIBCMT:exsup.obj
 0001:0000abd6       __NLG_Return2              1000bbd6     LIBCMT:exsup.obj
 0001:0000abd7       __free_osfhnd              1000bbd7 f   LIBCMT:osfinfo.obj
 0001:0000ac5d       __get_osfhandle            1000bc5d f   LIBCMT:osfinfo.obj
 0001:0000acc6       ___lock_fhandle            1000bcc6 f   LIBCMT:osfinfo.obj
 0001:0000ad65       __unlock_fhandle           1000bd65 f   LIBCMT:osfinfo.obj
 0001:0000ad8c       __commit                   1000bd8c f   LIBCMT:commit.obj
 0001:0000ae65       __calloc_impl              1000be65 f   LIBCMT:calloc_impl.obj
 0001:0000aee7       _realloc                   1000bee7 f   LIBCMT:realloc.obj
 0001:0000afe7       __ismbblead                1000bfe7 f   LIBCMT:ismbbyte.obj
 0001:0000b000       _strrchr                   1000c000 f   LIBCMT:strrchr.obj
 0001:0000b02d       __atodbl_l                 1000c02d f   LIBCMT:atodbl.obj
 0001:0000b0d5       __atoflt_l                 1000c0d5 f   LIBCMT:atodbl.obj
 0001:0000b17d       __fptostr                  1000c17d f   LIBCMT:_fptostr.obj
 0001:0000b230       ___dtold                   1000c230 f   LIBCMT:_cfout_.obj
 0001:0000b2e3       __fltout2                  1000c2e3 f   LIBCMT:_cfout_.obj
 0001:0000b380       __alldvrm                  1000c380 f   LIBCMT:lldvrm.obj
 0001:0000b460       __aullshr                  1000c460 f   LIBCMT:ullshr.obj
 0001:0000b47f       __fptrap                   1000c47f f   LIBCMT:crt0fp.obj
 0001:0000b488       __controlfp_s              1000c488 f   LIBCMT:_contrlfp_.obj
 0001:0000b5ce       ___crtGetStringTypeA       1000c5ce f   LIBCMT:a_str.obj
 0001:0000b60e       ___free_lc_time            1000c60e f   LIBCMT:inittime.obj
 0001:0000b985       ___free_lconv_num          1000c985 f   LIBCMT:initnum.obj
 0001:0000b9ee       ___free_lconv_mon          1000c9ee f   LIBCMT:initmon.obj
 0001:0000baf0       _strcspn                   1000caf0 f   LIBCMT:strcspn.obj
 0001:0000bb40       _strpbrk                   1000cb40 f   LIBCMT:strpbrk.obj
 0001:0000bb80       __SEH_prolog4_GS           1000cb80 f   LIBCMT:sehprolg4gs.obj
 0001:0000bbc8       __SEH_epilog4_GS           1000cbc8 f   LIBCMT:sehprolg4gs.obj
 0001:0000bbd7       __putwch_nolock            1000cbd7 f   LIBCMT:putwch.obj
 0001:0000bc19       __ld12tod                  1000cc19 f   LIBCMT:_intrncvt_.obj
 0001:0000c16a       __ld12tof                  1000d16a f   LIBCMT:_intrncvt_.obj
 0001:0000c6bb       ___strgtold12_l            1000d6bb f   LIBCMT:_strgtold_.obj
 0001:0000cd97       _$I10_OUTPUT               1000dd97 f   LIBCMT:_x10fout_.obj
 0001:0000d7bd       __control87                1000e7bd f i LIBCMT:_ieee87_.obj
 0001:0000dacf       ___initconout              1000eacf f   LIBCMT:initcon.obj
 0001:0000daee       ___termconout              1000eaee f   LIBCMT:initcon.obj
 0001:0000db10       ___ascii_strnicmp          1000eb10 f   LIBCMT:_strnicm.obj
 0001:0000db71       ___mtold12                 1000eb71 f   LIBCMT:_mantold_.obj
 0001:0000dd55       __statfp                   1000ed55 f   LIBCMT:_fpctrl_.obj
 0001:0000dd65       __clrfp                    1000ed65 f   LIBCMT:_fpctrl_.obj
 0001:0000dd76       __ctrlfp                   1000ed76 f   LIBCMT:_fpctrl_.obj
 0001:0000dda1       __set_statfp               1000eda1 f   LIBCMT:_fpctrl_.obj
 0001:0000ddf9       ___set_fpsr_sse2           1000edf9 f   LIBCMT:_fpctrl_.obj
 0001:0000de70       ??1bad_exception@std@@UAE@XZ 1000ee70 f i libboost_thread-vc100-mt-s-1_55:thread.obj
 0001:0000de80       ??_Ebad_exception@std@@UAEPAXI@Z 1000ee80 f i libboost_thread-vc100-mt-s-1_55:thread.obj
 0001:0000de80       ??_Gbad_exception@std@@UAEPAXI@Z 1000ee80 f i libboost_thread-vc100-mt-s-1_55:thread.obj
 0001:0000deb0       ?destroy@sp_counted_base@detail@boost@@UAEXXZ 1000eeb0 f i libboost_thread-vc100-mt-s-1_55:thread.obj
 0001:0000dec0       ??1once_context@detail@boost@@QAE@XZ 1000eec0 f i libboost_thread-vc100-mt-s-1_55:thread.obj
 0001:0000dee0       ?create_current_thread_tls_key@?A0x76023120@boost@@YAXXZ 1000eee0 f   libboost_thread-vc100-mt-s-1_55:thread.obj
 0001:0000df00       ?on_process_enter@boost@@YAXXZ 1000ef00 f   libboost_thread-vc100-mt-s-1_55:thread.obj
 0001:0000df00       ?sp_enable_shared_from_this@detail@boost@@YAXZZ 1000ef00 f   libboost_thread-vc100-mt-s-1_55:thread.obj
 0001:0000df00       ?tss_cleanup_implemented@boost@@YAXXZ 1000ef00 f   libboost_thread-vc100-mt-s-1_55:tss_pe.obj
 0001:0000df10       ?on_process_exit@boost@@YAXXZ 1000ef10 f   libboost_thread-vc100-mt-s-1_55:thread.obj
 0001:0000df30       ??$int_to_string@H@detail@boost@@YAXHPAD@Z 1000ef30 f i libboost_thread-vc100-mt-s-1_55:thread.obj
 0001:0000dfb0       ??$int_to_string@K@detail@boost@@YAXKPAD@Z 1000efb0 f i libboost_thread-vc100-mt-s-1_55:thread.obj
 0001:0000e030       ??0bad_exception@std@@QAE@ABV01@@Z 1000f030 f i libboost_thread-vc100-mt-s-1_55:thread.obj
 0001:0000e050       ?get_untyped_deleter@?$sp_counted_impl_p@V?$clone_impl@Ubad_exception_@exception_detail@boost@@@exception_detail@boost@@@detail@boost@@UAEPAXXZ 1000f050 f i libboost_thread-vc100-mt-s-1_55:thread.obj
 0001:0000e050       ?get_untyped_deleter@?$sp_counted_impl_p@V?$clone_impl@Ubad_alloc_@exception_detail@boost@@@exception_detail@boost@@@detail@boost@@UAEPAXXZ 1000f050 f i libboost_thread-vc100-mt-s-1_55:thread.obj
 0001:0000e060       ?get_deleter@?$sp_counted_impl_p@V?$clone_impl@Ubad_alloc_@exception_detail@boost@@@exception_detail@boost@@@detail@boost@@UAEPAXABVtype_info@@@Z 1000f060 f i libboost_thread-vc100-mt-s-1_55:thread.obj
 0001:0000e060       ?get_deleter@?$sp_counted_impl_p@V?$clone_impl@Ubad_exception_@exception_detail@boost@@@exception_detail@boost@@@detail@boost@@UAEPAXABVtype_info@@@Z 1000f060 f i libboost_thread-vc100-mt-s-1_55:thread.obj
 0001:0000e070       ?open_once_event@detail@boost@@YAPAXPADPAX@Z 1000f070 f i libboost_thread-vc100-mt-s-1_55:thread.obj
 0001:0000e0d0       ?create_once_event@detail@boost@@YAPAXPADPAX@Z 1000f0d0 f i libboost_thread-vc100-mt-s-1_55:thread.obj
 0001:0000e130       ?rollback_once_region@detail@boost@@YAXAAUonce_flag@2@AAUonce_context@12@@Z 1000f130 f i libboost_thread-vc100-mt-s-1_55:thread.obj
 0001:0000e180       ?call_once@boost@@YAXAAUonce_flag@1@P6AXXZ@Z 1000f180 f i libboost_thread-vc100-mt-s-1_55:thread.obj
 0001:0000e390       ??$?0V?$clone_impl@Ubad_alloc_@exception_detail@boost@@@exception_detail@boost@@@shared_count@detail@boost@@QAE@PAV?$clone_impl@Ubad_alloc_@exception_detail@boost@@@exception_detail@2@@Z 1000f390 f i libboost_thread-vc100-mt-s-1_55:thread.obj
 0001:0000e430       ??$?0V?$clone_impl@Ubad_exception_@exception_detail@boost@@@exception_detail@boost@@@shared_count@detail@boost@@QAE@PAV?$clone_impl@Ubad_exception_@exception_detail@boost@@@exception_detail@2@@Z 1000f430 f i libboost_thread-vc100-mt-s-1_55:thread.obj
 0001:0000e4d0       ?dispose@?$sp_counted_impl_p@V?$clone_impl@Ubad_exception_@exception_detail@boost@@@exception_detail@boost@@@detail@boost@@UAEXXZ 1000f4d0 f i libboost_thread-vc100-mt-s-1_55:thread.obj
 0001:0000e4d0       ?dispose@?$sp_counted_impl_p@V?$clone_impl@Ubad_alloc_@exception_detail@boost@@@exception_detail@boost@@@detail@boost@@UAEXXZ 1000f4d0 f i libboost_thread-vc100-mt-s-1_55:thread.obj
 0001:0000e4e0       ??_G?$sp_counted_impl_p@V?$clone_impl@Ubad_exception_@exception_detail@boost@@@exception_detail@boost@@@detail@boost@@UAEPAXI@Z 1000f4e0 f i libboost_thread-vc100-mt-s-1_55:thread.obj
 0001:0000e4e0       ??_Esp_counted_base@detail@boost@@UAEPAXI@Z 1000f4e0 f i libboost_thread-vc100-mt-s-1_55:thread.obj
 0001:0000e4e0       ??_E?$sp_counted_impl_p@V?$clone_impl@Ubad_exception_@exception_detail@boost@@@exception_detail@boost@@@detail@boost@@UAEPAXI@Z 1000f4e0 f i libboost_thread-vc100-mt-s-1_55:thread.obj
 0001:0000e4e0       ??_E?$sp_counted_impl_p@V?$clone_impl@Ubad_alloc_@exception_detail@boost@@@exception_detail@boost@@@detail@boost@@UAEPAXI@Z 1000f4e0 f i libboost_thread-vc100-mt-s-1_55:thread.obj
 0001:0000e4e0       ??_Gsp_counted_base@detail@boost@@UAEPAXI@Z 1000f4e0 f i libboost_thread-vc100-mt-s-1_55:thread.obj
 0001:0000e4e0       ??_G?$sp_counted_impl_p@V?$clone_impl@Ubad_alloc_@exception_detail@boost@@@exception_detail@boost@@@detail@boost@@UAEPAXI@Z 1000f4e0 f i libboost_thread-vc100-mt-s-1_55:thread.obj
 0001:0000e500       ??1bad_alloc_@exception_detail@boost@@UAE@XZ 1000f500 f i libboost_thread-vc100-mt-s-1_55:thread.obj
 0001:0000e540       ??_Ebad_alloc_@exception_detail@boost@@WBE@AEPAXI@Z 1000f540 f i libboost_thread-vc100-mt-s-1_55:thread.obj
 0001:0000e550       ??_Ebad_alloc_@exception_detail@boost@@UAEPAXI@Z 1000f550 f i libboost_thread-vc100-mt-s-1_55:thread.obj
 0001:0000e550       ??_Gbad_alloc_@exception_detail@boost@@UAEPAXI@Z 1000f550 f i libboost_thread-vc100-mt-s-1_55:thread.obj
 0001:0000e5b0       ??1bad_exception_@exception_detail@boost@@UAE@XZ 1000f5b0 f i libboost_thread-vc100-mt-s-1_55:thread.obj
 0001:0000e5f0       ??_Ebad_exception_@exception_detail@boost@@WBE@AEPAXI@Z 1000f5f0 f i libboost_thread-vc100-mt-s-1_55:thread.obj
 0001:0000e600       ??_Ebad_exception_@exception_detail@boost@@UAEPAXI@Z 1000f600 f i libboost_thread-vc100-mt-s-1_55:thread.obj
 0001:0000e600       ??_Gbad_exception_@exception_detail@boost@@UAEPAXI@Z 1000f600 f i libboost_thread-vc100-mt-s-1_55:thread.obj
 0001:0000e660       ??0bad_alloc_@exception_detail@boost@@QAE@ABU012@@Z 1000f660 f i libboost_thread-vc100-mt-s-1_55:thread.obj
 0001:0000e700       ??0bad_exception_@exception_detail@boost@@QAE@ABU012@@Z 1000f700 f i libboost_thread-vc100-mt-s-1_55:thread.obj
 0001:0000e7a0       ??1?$clone_impl@Ubad_alloc_@exception_detail@boost@@@exception_detail@boost@@UAE@XZ 1000f7a0 f i libboost_thread-vc100-mt-s-1_55:thread.obj
 0001:0000e810       ??_E?$clone_impl@Ubad_alloc_@exception_detail@boost@@@exception_detail@boost@@$4PPPPPPPM@CI@AEPAXI@Z 1000f810 f i libboost_thread-vc100-mt-s-1_55:thread.obj
 0001:0000e820       ??_E?$clone_impl@Ubad_alloc_@exception_detail@boost@@@exception_detail@boost@@WBE@AEPAXI@Z 1000f820 f i libboost_thread-vc100-mt-s-1_55:thread.obj
 0001:0000e830       ??1?$clone_impl@Ubad_exception_@exception_detail@boost@@@exception_detail@boost@@UAE@XZ 1000f830 f i libboost_thread-vc100-mt-s-1_55:thread.obj
 0001:0000e8a0       ??_E?$clone_impl@Ubad_exception_@exception_detail@boost@@@exception_detail@boost@@$4PPPPPPPM@CI@AEPAXI@Z 1000f8a0 f i libboost_thread-vc100-mt-s-1_55:thread.obj
 0001:0000e8b0       ??_E?$clone_impl@Ubad_exception_@exception_detail@boost@@@exception_detail@boost@@WBE@AEPAXI@Z 1000f8b0 f i libboost_thread-vc100-mt-s-1_55:thread.obj
 0001:0000e8c0       ??$sp_pointer_construct@$$CBVclone_base@exception_detail@boost@@V?$clone_impl@Ubad_alloc_@exception_detail@boost@@@23@@detail@boost@@YAXPAV?$shared_ptr@$$CBVclone_base@exception_detail@boost@@@1@PAV?$clone_impl@Ubad_alloc_@exception_detail@boost@@@exception_detail@1@AAVshared_count@01@@Z 1000f8c0 f i libboost_thread-vc100-mt-s-1_55:thread.obj
 0001:0000e930       ??$sp_pointer_construct@$$CBVclone_base@exception_detail@boost@@V?$clone_impl@Ubad_exception_@exception_detail@boost@@@23@@detail@boost@@YAXPAV?$shared_ptr@$$CBVclone_base@exception_detail@boost@@@1@PAV?$clone_impl@Ubad_exception_@exception_detail@boost@@@exception_detail@1@AAVshared_count@01@@Z 1000f930 f i libboost_thread-vc100-mt-s-1_55:thread.obj
 0001:0000e9a0       ??_D?$clone_impl@Ubad_alloc_@exception_detail@boost@@@exception_detail@boost@@QAEXXZ 1000f9a0 f i libboost_thread-vc100-mt-s-1_55:thread.obj
 0001:0000e9c0       ??0?$clone_impl@Ubad_alloc_@exception_detail@boost@@@exception_detail@boost@@QAE@ABV012@@Z 1000f9c0 f i libboost_thread-vc100-mt-s-1_55:thread.obj
 0001:0000ea70       ??_D?$clone_impl@Ubad_exception_@exception_detail@boost@@@exception_detail@boost@@QAEXXZ 1000fa70 f i libboost_thread-vc100-mt-s-1_55:thread.obj
 0001:0000ea90       ??0?$clone_impl@Ubad_exception_@exception_detail@boost@@@exception_detail@boost@@QAE@ABV012@@Z 1000fa90 f i libboost_thread-vc100-mt-s-1_55:thread.obj
 0001:0000eb40       ??_E?$clone_impl@Ubad_alloc_@exception_detail@boost@@@exception_detail@boost@@UAEPAXI@Z 1000fb40 f i libboost_thread-vc100-mt-s-1_55:thread.obj
 0001:0000eb40       ??_G?$clone_impl@Ubad_alloc_@exception_detail@boost@@@exception_detail@boost@@UAEPAXI@Z 1000fb40 f i libboost_thread-vc100-mt-s-1_55:thread.obj
 0001:0000eb70       ??_G?$clone_impl@Ubad_exception_@exception_detail@boost@@@exception_detail@boost@@UAEPAXI@Z 1000fb70 f i libboost_thread-vc100-mt-s-1_55:thread.obj
 0001:0000eb70       ??_E?$clone_impl@Ubad_exception_@exception_detail@boost@@@exception_detail@boost@@UAEPAXI@Z 1000fb70 f i libboost_thread-vc100-mt-s-1_55:thread.obj
 0001:0000eba0       ?rethrow@?$clone_impl@Ubad_alloc_@exception_detail@boost@@@exception_detail@boost@@EBEXXZ 1000fba0 f i libboost_thread-vc100-mt-s-1_55:thread.obj
 0001:0000ec80       ?rethrow@?$clone_impl@Ubad_exception_@exception_detail@boost@@@exception_detail@boost@@EBEXXZ 1000fc80 f i libboost_thread-vc100-mt-s-1_55:thread.obj
 0001:0000ed60       ?rethrow@?$clone_impl@Ubad_exception_@exception_detail@boost@@@exception_detail@boost@@$0PPPPPPPM@A@BEXXZ 1000fd60 f i libboost_thread-vc100-mt-s-1_55:thread.obj
 0001:0000ed70       ?rethrow@?$clone_impl@Ubad_alloc_@exception_detail@boost@@@exception_detail@boost@@$0PPPPPPPM@A@BEXXZ 1000fd70 f i libboost_thread-vc100-mt-s-1_55:thread.obj
 0001:0000ed80       ??$get_static_exception_object@Ubad_alloc_@exception_detail@boost@@@exception_detail@boost@@YA?AVexception_ptr@1@XZ 1000fd80 f i libboost_thread-vc100-mt-s-1_55:thread.obj
 0001:0000f070       ??$get_static_exception_object@Ubad_exception_@exception_detail@boost@@@exception_detail@boost@@YA?AVexception_ptr@1@XZ 10010070 f i libboost_thread-vc100-mt-s-1_55:thread.obj
 0001:0000f360       ?clone@?$clone_impl@Ubad_alloc_@exception_detail@boost@@@exception_detail@boost@@EBEPBVclone_base@23@XZ 10010360 f i libboost_thread-vc100-mt-s-1_55:thread.obj
 0001:0000f440       ?clone@?$clone_impl@Ubad_exception_@exception_detail@boost@@@exception_detail@boost@@EBEPBVclone_base@23@XZ 10010440 f i libboost_thread-vc100-mt-s-1_55:thread.obj
 0001:0000f520       ?clone@?$clone_impl@Ubad_alloc_@exception_detail@boost@@@exception_detail@boost@@$0PPPPPPPM@A@BEPBVclone_base@23@XZ 10010520 f i libboost_thread-vc100-mt-s-1_55:thread.obj
 0001:0000f530       ?clone@?$clone_impl@Ubad_exception_@exception_detail@boost@@@exception_detail@boost@@$0PPPPPPPM@A@BEPBVclone_base@23@XZ 10010530 f i libboost_thread-vc100-mt-s-1_55:thread.obj
 0001:0000f540       ?run_thread_exit_callbacks@?A0x76023120@boost@@YAXXZ 10010540 f   libboost_thread-vc100-mt-s-1_55:thread.obj
 0001:0000f6e0       ?on_thread_exit@boost@@YAXXZ 100106e0 f   libboost_thread-vc100-mt-s-1_55:thread.obj
 0001:0000f740       ?dll_callback@?A0xa0cf5416@@YGHPAXK0@Z 10010740 f   libboost_thread-vc100-mt-s-1_55:tss_pe.obj
 0001:0000f780       ??_Eerror_category@system@boost@@UAEPAXI@Z 10010780 f i libboost_system-vc100-mt-s-1_55:error_code.obj
 0001:0000f780       ??_Gsystem_error_category@?A0x2ad791f3@system@boost@@UAEPAXI@Z 10010780 f i libboost_system-vc100-mt-s-1_55:error_code.obj
 0001:0000f780       ??_Gerror_category@system@boost@@UAEPAXI@Z 10010780 f i libboost_system-vc100-mt-s-1_55:error_code.obj
 0001:0000f780       ??_Esystem_error_category@?A0x2ad791f3@system@boost@@UAEPAXI@Z 10010780 f i libboost_system-vc100-mt-s-1_55:error_code.obj
 0001:0000f780       ??_Ggeneric_error_category@?A0x2ad791f3@system@boost@@UAEPAXI@Z 10010780 f i libboost_system-vc100-mt-s-1_55:error_code.obj
 0001:0000f780       ??_Egeneric_error_category@?A0x2ad791f3@system@boost@@UAEPAXI@Z 10010780 f i libboost_system-vc100-mt-s-1_55:error_code.obj
 0001:0000f7a0       ?default_error_condition@error_category@system@boost@@UBE?AVerror_condition@23@H@Z 100107a0 f i libboost_system-vc100-mt-s-1_55:error_code.obj
 0001:0000f7b0       ?equivalent@error_category@system@boost@@UBE_NHABVerror_condition@23@@Z 100107b0 f i libboost_system-vc100-mt-s-1_55:error_code.obj
 0001:0000f7f0       ?equivalent@error_category@system@boost@@UBE_NABVerror_code@23@H@Z 100107f0 f i libboost_system-vc100-mt-s-1_55:error_code.obj
 0001:0000f810       ??1local_free_on_destruction@detail@system@boost@@QAE@XZ 10010810 f i libboost_system-vc100-mt-s-1_55:error_code.obj
 0001:0000f820       ?name@generic_error_category@?A0x2ad791f3@system@boost@@UBEPBDXZ 10010820 f   libboost_system-vc100-mt-s-1_55:error_code.obj
 0001:0000f830       ?name@system_error_category@?A0x2ad791f3@system@boost@@UBEPBDXZ 10010830 f   libboost_system-vc100-mt-s-1_55:error_code.obj
 0001:0000f840       ?system_category@system@boost@@YAABVerror_category@12@XZ 10010840 f   libboost_system-vc100-mt-s-1_55:error_code.obj
 0001:0000f8b0       ?generic_category@system@boost@@YAABVerror_category@12@XZ 100108b0 f   libboost_system-vc100-mt-s-1_55:error_code.obj
 0001:0000f920       ?make_error_condition@errc@system@boost@@YA?AVerror_condition@23@W4errc_t@123@@Z 10010920 f i libboost_system-vc100-mt-s-1_55:error_code.obj
 0001:0000f9a0       ?default_error_condition@system_error_category@?A0x2ad791f3@system@boost@@UBE?AVerror_condition@34@H@Z 100109a0 f   libboost_system-vc100-mt-s-1_55:error_code.obj
 0001:00010320       ?assign@?$basic_string@DU?$char_traits@D@std@@V?$allocator@D@2@@std@@QAEAAV12@$$QAV12@@Z 10011320 f i libboost_system-vc100-mt-s-1_55:error_code.obj
 0001:000103a0       ?message@generic_error_category@?A0x2ad791f3@system@boost@@UBE?AV?$basic_string@DU?$char_traits@D@std@@V?$allocator@D@2@@std@@H@Z 100113a0 f   libboost_system-vc100-mt-s-1_55:error_code.obj
 0001:00010520       ?message@system_error_category@?A0x2ad791f3@system@boost@@UBE?AV?$basic_string@DU?$char_traits@D@std@@V?$allocator@D@2@@std@@H@Z 10011520 f   libboost_system-vc100-mt-s-1_55:error_code.obj
 0001:000106c6       _RtlUnwind@16              100116c6 f   kernel32:KERNEL32.dll
 0001:000106cc       ?_JumpToContinuation@@YGXPAXPAUEHRegistrationNode@@@Z 100116cc f   LIBCMT:_trnsctrl_.obj
 0001:000106fe       ?_CallMemberFunction1@@YGXPAX00@Z 100116fe f   LIBCMT:_trnsctrl_.obj
 0001:000106fe       ?_CallMemberFunction2@@YGXPAX00H@Z 100116fe f   LIBCMT:_trnsctrl_.obj
 0001:000106fe       ?_CallMemberFunction0@@YGXPAX0@Z 100116fe f   LIBCMT:_trnsctrl_.obj
 0001:00010705       ?_UnwindNestedFrames@@YGXPAUEHRegistrationNode@@PAUEHExceptionRecord@@@Z 10011705 f   LIBCMT:_trnsctrl_.obj
 0001:00010759       ___CxxFrameHandler3        10011759 f   LIBCMT:_trnsctrl_.obj
 0001:000107c2       ?_CallSETranslator@@YAHPAUEHExceptionRecord@@PAUEHRegistrationNode@@PAX2PBU_s_FuncInfo@@H1@Z 100117c2 f   LIBCMT:_trnsctrl_.obj
 0001:00010938       ?_GetRangeOfTrysToCheck@@YAPBU_s_TryBlockMapEntry@@PBU_s_FuncInfo@@HHPAI1@Z 10011938 f   LIBCMT:_trnsctrl_.obj
 0001:000109ab       __CreateFrameInfo          100119ab f   LIBCMT:_trnsctrl_.obj
 0001:000109d7       __IsExceptionObjectToBeDestroyed 100119d7 f   LIBCMT:_trnsctrl_.obj
 0001:000109fe       __FindAndUnlinkFrame       100119fe f   LIBCMT:_trnsctrl_.obj
 0001:00010a50       ?_CallCatchBlock2@@YAPAXPAUEHRegistrationNode@@PBU_s_FuncInfo@@PAXHK@Z 10011a50 f   LIBCMT:_trnsctrl_.obj
 0001:00010ab0       __allrem                   10011ab0 f   LIBCMT:llrem.obj
 0001:00010b70       __alldiv                   10011b70 f   LIBCMT:lldiv.obj
 0001:00010c1a       __get_sys_err_msg          10011c1a f i LIBCMT:strerror.obj
 0001:00010c42       _strerror                  10011c42 f   LIBCMT:strerror.obj
 0001:00010cac       ___TypeMatch               10011cac f   LIBCMT:frame.obj
 0001:00010d0b       ___FrameUnwindFilter       10011d0b f   LIBCMT:frame.obj
 0001:00010d5a       ___FrameUnwindToState      10011d5a f   LIBCMT:frame.obj
 0001:00010e7b       ___DestructExceptionObject 10011e7b f   LIBCMT:frame.obj
 0001:00010ed0       ___AdjustPointer           10011ed0 f   LIBCMT:frame.obj
 0001:00011154       ___BuildCatchObjectHelper  10012154 f   LIBCMT:frame.obj
 0001:000112d3       ___BuildCatchObject        100122d3 f   LIBCMT:frame.obj
 0001:0001184f       ___InternalCxxFrameHandler 1001284f f   LIBCMT:frame.obj
 0001:00011940       __CallSettingFrame@12      10012940 f   LIBCMT:lowhelpr.obj
 0001:00011967       __NLG_Return               10012967     LIBCMT:lowhelpr.obj
 0001:0001198c       ___sys_nerr                1001298c f   LIBCMT:syserr.obj
 0001:00011992       ___sys_errlist             10012992 f   LIBCMT:syserr.obj
 0001:00011998       __EH_prolog3               10012998 f   LIBCMT:ehprolg3.obj
 0001:000119cb       __EH_prolog3_catch         100129cb f   LIBCMT:ehprolg3.obj
 0001:00011a01       __EH_epilog3               10012a01 f   LIBCMT:ehprolg3.obj
 0001:00011a15       ?_ValidateExecute@@YAHP6GHXZ@Z 10012a15 f   LIBCMT:validate.obj
 0001:00011a15       ?_ValidateWrite@@YAHPAXI@Z 10012a15 f   LIBCMT:validate.obj
 0001:00011a15       ?_ValidateRead@@YAHPBXI@Z  10012a15 f   LIBCMT:validate.obj
 0001:00011a30       __CIsqrt                   10012a30 f   LIBCMT:_sqrt_.obj
 0001:00011a44       _sqrt                      10012a44     LIBCMT:_sqrt_.obj
 0001:00011af0       __ftol2_sse                10012af0 f   LIBCMT:ftol2.obj
 0001:00011af9       __ftol2_pentium4           10012af9 f   LIBCMT:ftol2.obj
 0001:00011b0c       __ftol2_sse_excpt          10012b0c f   LIBCMT:ftol2.obj
 0001:00011b26       __ftol2                    10012b26 f   LIBCMT:ftol2.obj
 0001:00011ba0       __trandisp1                10012ba0 f   LIBCMT:_87disp_.obj
 0001:00011c07       __trandisp2                10012c07 f   LIBCMT:_87disp_.obj
 0001:00011c93       __rttospopde               10012c93     LIBCMT:_87disp_.obj
 0001:00011c98       __rttospop                 10012c98     LIBCMT:_87disp_.obj
 0001:00011c9a       __rtnospop                 10012c9a     LIBCMT:_87disp_.obj
 0001:00011c9c       __rttosnpop                10012c9c     LIBCMT:_87disp_.obj
 0001:00011c9d       __rtnospopde               10012c9d     LIBCMT:_87disp_.obj
 0001:00011ca4       __rtzeropop                10012ca4     LIBCMT:_87disp_.obj
 0001:00011ca6       __rtzeronpop               10012ca6     LIBCMT:_87disp_.obj
 0001:00011cab       __rtonepop                 10012cab     LIBCMT:_87disp_.obj
 0001:00011cad       __rtonenpop                10012cad     LIBCMT:_87disp_.obj
 0001:00011cb2       __tosnan1                  10012cb2     LIBCMT:_87disp_.obj
 0001:00011cdd       __nosnan2                  10012cdd     LIBCMT:_87disp_.obj
 0001:00011cdf       __tosnan2                  10012cdf     LIBCMT:_87disp_.obj
 0001:00011d07       __nan2                     10012d07     LIBCMT:_87disp_.obj
 0001:00011d46       __rtindfpop                10012d46     LIBCMT:_87disp_.obj
 0001:00011d48       __rtindfnpop               10012d48     LIBCMT:_87disp_.obj
 0001:00011d59       __rttosnpopde              10012d59     LIBCMT:_87disp_.obj
 0001:00011d63       __rtchsifneg               10012d63     LIBCMT:_87disp_.obj
 0001:00011d70       __startTwoArgErrorHandling 10012d70 f   LIBCMT:_genexcep_.obj
 0001:00011d87       __startOneArgErrorHandling 10012d87 f   LIBCMT:_genexcep_.obj
 0001:00011dd0       __twoToTOS                 10012dd0 f   LIBCMT:_common_.obj
 0001:00011de5       __load_CW                  10012de5 f   LIBCMT:_common_.obj
 0001:00011dfc       __convertTOStoQNaN         10012dfc f   LIBCMT:_common_.obj
 0001:00011e15       __fload_withFB             10012e15 f   LIBCMT:_common_.obj
 0001:00011e58       __checkTOS_withFB          10012e58 f   LIBCMT:_common_.obj
 0001:00011e6e       __fast_exit                10012e6e f   LIBCMT:_common_.obj
 0001:00011e7b       __math_exit                10012e7b f   LIBCMT:_common_.obj
 0001:00011ea5       __check_overflow_exit      10012ea5 f   LIBCMT:_common_.obj
 0001:00011eb9       __check_range_exit         10012eb9 f   LIBCMT:_common_.obj
 0001:00011f5c       __87except                 10012f5c f   LIBCMT:_87except_.obj
 0001:0001209b       __raise_exc_ex             1001309b f   LIBCMT:_fpexcept_.obj
 0001:00012377       __raise_exc                10013377 f   LIBCMT:_fpexcept_.obj
 0001:0001239a       __handle_exc               1001339a f   LIBCMT:_fpexcept_.obj
 0001:0001257e       __set_errno_from_matherr   1001357e f   LIBCMT:_fpexcept_.obj
 0001:000125ab       __matherr                  100135ab f   LIBCMT:_matherr_.obj
 0001:000125ae       __set_exp                  100135ae f   LIBCMT:_util_.obj
 0001:000125db       __decomp                   100135db f   LIBCMT:_util_.obj
 0002:00000000       __imp__TlsSetValue@8       10015000     kernel32:KERNEL32.dll
 0002:00000004       __imp__FormatMessageA@28   10015004     kernel32:KERNEL32.dll
 0002:00000008       __imp__LocalFree@4         10015008     kernel32:KERNEL32.dll
 0002:0000000c       __imp__GetProcessHeap@0    1001500c     kernel32:KERNEL32.dll
 0002:00000010       __imp__HeapAlloc@12        10015010     kernel32:KERNEL32.dll
 0002:00000014       __imp__CreateEventA@16     10015014     kernel32:KERNEL32.dll
 0002:00000018       __imp__CloseHandle@4       10015018     kernel32:KERNEL32.dll
 0002:0000001c       __imp__HeapFree@12         1001501c     kernel32:KERNEL32.dll
 0002:00000020       __imp__MultiByteToWideChar@24 10015020     kernel32:KERNEL32.dll
 0002:00000024       __imp__WideCharToMultiByte@32 10015024     kernel32:KERNEL32.dll
 0002:00000028       __imp__ResetEvent@4        10015028     kernel32:KERNEL32.dll
 0002:0000002c       __imp__GetLastError@0      1001502c     kernel32:KERNEL32.dll
 0002:00000030       __imp__DecodePointer@4     10015030     kernel32:KERNEL32.dll
 0002:00000034       __imp__EncodePointer@4     10015034     kernel32:KERNEL32.dll
 0002:00000038       __imp__GetCurrentThreadId@0 10015038     kernel32:KERNEL32.dll
 0002:0000003c       __imp__GetCommandLineA@0   1001503c     kernel32:KERNEL32.dll
 0002:00000040       __imp__GetSystemTimeAsFileTime@4 10015040     kernel32:KERNEL32.dll
 0002:00000044       __imp__RaiseException@16   10015044     kernel32:KERNEL32.dll
 0002:00000048       __imp__TerminateProcess@8  10015048     kernel32:KERNEL32.dll
 0002:0000004c       __imp__GetCurrentProcess@0 1001504c     kernel32:KERNEL32.dll
 0002:00000050       __imp__UnhandledExceptionFilter@4 10015050     kernel32:KERNEL32.dll
 0002:00000054       __imp__SetUnhandledExceptionFilter@4 10015054     kernel32:KERNEL32.dll
 0002:00000058       __imp__IsDebuggerPresent@0 10015058     kernel32:KERNEL32.dll
 0002:0000005c       __imp__IsProcessorFeaturePresent@4 1001505c     kernel32:KERNEL32.dll
 0002:00000060       __imp__HeapCreate@12       10015060     kernel32:KERNEL32.dll
 0002:00000064       __imp__HeapDestroy@4       10015064     kernel32:KERNEL32.dll
 0002:00000068       __imp__GetProcAddress@8    10015068     kernel32:KERNEL32.dll
 0002:0000006c       __imp__GetModuleHandleW@4  1001506c     kernel32:KERNEL32.dll
 0002:00000070       __imp__ExitProcess@4       10015070     kernel32:KERNEL32.dll
 0002:00000074       __imp__WriteFile@20        10015074     kernel32:KERNEL32.dll
 0002:00000078       __imp__GetStdHandle@4      10015078     kernel32:KERNEL32.dll
 0002:0000007c       __imp__GetModuleFileNameW@12 1001507c     kernel32:KERNEL32.dll
 0002:00000080       __imp__EnterCriticalSection@4 10015080     kernel32:KERNEL32.dll
 0002:00000084       __imp__LeaveCriticalSection@4 10015084     kernel32:KERNEL32.dll
 0002:00000088       __imp__SetHandleCount@4    10015088     kernel32:KERNEL32.dll
 0002:0000008c       __imp__InitializeCriticalSectionAndSpinCount@8 1001508c     kernel32:KERNEL32.dll
 0002:00000090       __imp__GetFileType@4       10015090     kernel32:KERNEL32.dll
 0002:00000094       __imp__GetStartupInfoW@4   10015094     kernel32:KERNEL32.dll
 0002:00000098       __imp__DeleteCriticalSection@4 10015098     kernel32:KERNEL32.dll
 0002:0000009c       __imp__RtlUnwind@16        1001509c     kernel32:KERNEL32.dll
 0002:000000a0       __imp__TlsAlloc@0          100150a0     kernel32:KERNEL32.dll
 0002:000000a4       __imp__TlsGetValue@4       100150a4     kernel32:KERNEL32.dll
 0002:000000a8       __imp__TlsFree@4           100150a8     kernel32:KERNEL32.dll
 0002:000000ac       __imp__InterlockedIncrement@4 100150ac     kernel32:KERNEL32.dll
 0002:000000b0       __imp__SetLastError@4      100150b0     kernel32:KERNEL32.dll
 0002:000000b4       __imp__InterlockedDecrement@4 100150b4     kernel32:KERNEL32.dll
 0002:000000b8       __imp__Sleep@4             100150b8     kernel32:KERNEL32.dll
 0002:000000bc       __imp__GetModuleFileNameA@12 100150bc     kernel32:KERNEL32.dll
 0002:000000c0       __imp__FreeEnvironmentStringsW@4 100150c0     kernel32:KERNEL32.dll
 0002:000000c4       __imp__GetEnvironmentStringsW@0 100150c4     kernel32:KERNEL32.dll
 0002:000000c8       __imp__QueryPerformanceCounter@4 100150c8     kernel32:KERNEL32.dll
 0002:000000cc       __imp__GetTickCount@0      100150cc     kernel32:KERNEL32.dll
 0002:000000d0       __imp__GetCurrentProcessId@0 100150d0     kernel32:KERNEL32.dll
 0002:000000d4       __imp__GetCPInfo@8         100150d4     kernel32:KERNEL32.dll
 0002:000000d8       __imp__GetACP@0            100150d8     kernel32:KERNEL32.dll
 0002:000000dc       __imp__GetOEMCP@0          100150dc     kernel32:KERNEL32.dll
 0002:000000e0       __imp__IsValidCodePage@4   100150e0     kernel32:KERNEL32.dll
 0002:000000e4       __imp__LCMapStringW@24     100150e4     kernel32:KERNEL32.dll
 0002:000000e8       __imp__GetStringTypeW@16   100150e8     kernel32:KERNEL32.dll
 0002:000000ec       __imp__SetFilePointer@16   100150ec     kernel32:KERNEL32.dll
 0002:000000f0       __imp__GetConsoleCP@0      100150f0     kernel32:KERNEL32.dll
 0002:000000f4       __imp__GetConsoleMode@8    100150f4     kernel32:KERNEL32.dll
 0002:000000f8       __imp__HeapSize@12         100150f8     kernel32:KERNEL32.dll
 0002:000000fc       __imp__LoadLibraryW@4      100150fc     kernel32:KERNEL32.dll
 0002:00000100       __imp__SetStdHandle@8      10015100     kernel32:KERNEL32.dll
 0002:00000104       __imp__FlushFileBuffers@4  10015104     kernel32:KERNEL32.dll
 0002:00000108       __imp__HeapReAlloc@16      10015108     kernel32:KERNEL32.dll
 0002:0000010c       __imp__WriteConsoleW@20    1001510c     kernel32:KERNEL32.dll
 0002:00000110       __imp__CreateFileW@28      10015110     kernel32:KERNEL32.dll
 0002:00000114       __imp__SetEvent@4          10015114     kernel32:KERNEL32.dll
 0002:00000118       __imp__WaitForSingleObject@8 10015118     kernel32:KERNEL32.dll
 0002:0000011c       __imp__OpenEventA@12       1001511c     kernel32:KERNEL32.dll
 0002:00000120       \177KERNEL32_NULL_THUNK_DATA 10015120     kernel32:KERNEL32.dll
 0002:00000124       __imp_?Lock@CThreadMutex@@QAEXXZ 10015124     tier0:tier0.dll
 0002:00000128       __imp_?Unlock@CThreadMutex@@QAEXXZ 10015128     tier0:tier0.dll
 0002:0000012c       __imp__Msg                 1001512c     tier0:tier0.dll
 0002:00000130       __imp__g_pMemAlloc         10015130     tier0:tier0.dll
 0002:00000134       \177tier0_NULL_THUNK_DATA  10015134     tier0:tier0.dll
 0002:00000138       ___xc_a                    10015138     LIBCMT:crt0init.obj
 0002:00000144       ?p_process_init@?A0xa0cf5416@@3P6AHXZA 10015144     libboost_thread-vc100-mt-s-1_55:tss_pe.obj
 0002:00000180       ___xc_z                    10015180     LIBCMT:crt0init.obj
 0002:00000184       ___xi_a                    10015184     LIBCMT:crt0init.obj
 0002:00000198       ?p_tls_prepare@?A0xa0cf5416@@3P6AHXZA 10015198     libboost_thread-vc100-mt-s-1_55:tss_pe.obj
 0002:0000019c       ___xi_z                    1001519c     LIBCMT:crt0init.obj
 0002:000001a0       ___xl_a                    100151a0     LIBCMT:tlssup.obj
 0002:000001a4       ?__xl_ca@?A0xa0cf5416@@3P6GXPAUHINSTANCE__@@KPAX@ZA 100151a4     libboost_thread-vc100-mt-s-1_55:tss_pe.obj
 0002:000001a8       ___xl_z                    100151a8     LIBCMT:tlssup.obj
 0002:000001ac       ___xp_a                    100151ac     LIBCMT:crt0init.obj
 0002:000001b8       ___xp_z                    100151b8     LIBCMT:crt0init.obj
 0002:000001bc       ___xt_a                    100151bc     LIBCMT:crt0init.obj
 0002:000001c0       ?p_process_term@?A0xa0cf5416@@3P6AHXZA 100151c0     libboost_thread-vc100-mt-s-1_55:tss_pe.obj
 0002:000001c4       ___xt_z                    100151c4     LIBCMT:crt0init.obj
 0002:000001ec       ??_C@_01JOAMLHOP@?9?$AA@   100151ec     tier1:strtools.obj
 0002:000001f4       ??_7logic_error@std@@6B@   100151f4     libcpmt:xthrow.obj
 0002:00000200       ??_7length_error@std@@6B@  10015200     libcpmt:xthrow.obj
 0002:0000020c       ??_7out_of_range@std@@6B@  1001520c     libcpmt:xthrow.obj
 0002:00000218       ??_7bad_alloc@std@@6B@     10015218     LIBCMT:new.obj
 0002:00000224       ??_7exception@std@@6B@     10015224     LIBCMT:stdexcpt.obj
 0002:0000022c       ??_C@_0BC@EOODALEL@Unknown?5exception?$AA@ 1001522c     LIBCMT:stdexcpt.obj
 0002:00000244       ??_7type_info@@6B@         10015244     LIBCMT:typinfo.obj
 0002:00000248       __pDefaultRawDllMain       10015248     LIBCMT:dllcrt0.obj
 0002:0000024c       __FPinit                   1001524c     LIBCMT:_fpinit_.obj
 0002:00000278       ??_C@_1O@CEDCILHN@?$AA?$CI?$AAn?$AAu?$AAl?$AAl?$AA?$CJ?$AA?$AA@ 10015278     LIBCMT:output.obj
 0002:00000288       ??_C@_06OJHGLDPL@?$CInull?$CJ?$AA@ 10015288     LIBCMT:output.obj
 0002:00000290       ___lookuptable             10015290     LIBCMT:output.obj
 0002:000002f0       ___lookuptable_s           100152f0     LIBCMT:outputs.obj
 0002:0000034c       ??_C@_0P@MIGLKIOC@CorExitProcess?$AA@ 1001534c     LIBCMT:crt0dat.obj
 0002:0000035c       ??_C@_1BI@BGOHAHKC@?$AAm?$AAs?$AAc?$AAo?$AAr?$AAe?$AAe?$AA?4?$AAd?$AAl?$AAl?$AA?$AA@ 1001535c     LIBCMT:crt0dat.obj
 0002:00000374       ??_C@_1BO@BKOMIGKJ@?$AAr?$AAu?$AAn?$AAt?$AAi?$AAm?$AAe?$AA?5?$AAe?$AAr?$AAr?$AAo?$AAr?$AA?5?$AA?$AA@ 10015374     LIBCMT:crt0msg.obj
 0002:00000394       ??_C@_15JNBOKNOG@?$AA?$AN?$AA?6?$AA?$AA@ 10015394     LIBCMT:crt0msg.obj
 0002:0000039c       ??_C@_1BM@JBBEPPHI@?$AAT?$AAL?$AAO?$AAS?$AAS?$AA?5?$AAe?$AAr?$AAr?$AAo?$AAr?$AA?$AN?$AA?6?$AA?$AA@ 1001539c     LIBCMT:crt0msg.obj
 0002:000003b8       ??_C@_1BK@KMOMNAAI@?$AAS?$AAI?$AAN?$AAG?$AA?5?$AAe?$AAr?$AAr?$AAo?$AAr?$AA?$AN?$AA?6?$AA?$AA@ 100153b8     LIBCMT:crt0msg.obj
 0002:000003d4       ??_C@_1BO@BFCDCGC@?$AAD?$AAO?$AAM?$AAA?$AAI?$AAN?$AA?5?$AAe?$AAr?$AAr?$AAo?$AAr?$AA?$AN?$AA?6?$AA?$AA@ 100153d4     LIBCMT:crt0msg.obj
 0002:000003f8       ??_C@_1BOO@KGEDBGAJ@?$AAR?$AA6?$AA0?$AA3?$AA3?$AA?$AN?$AA?6?$AA?9?$AA?5?$AAA?$AAt?$AAt?$AAe?$AAm?$AAp?$AAt?$AA?5?$AAt?$AAo?$AA?5?$AAu?$AAs?$AAe?$AA?5?$AAM?$AAS?$AAI?$AAL?$AA?5?$AAc?$AAo?$AAd@ 100153f8     LIBCMT:crt0msg.obj
 0002:000005e8       ??_C@_1GG@GOPILAJP@?$AAR?$AA6?$AA0?$AA3?$AA2?$AA?$AN?$AA?6?$AA?9?$AA?5?$AAn?$AAo?$AAt?$AA?5?$AAe?$AAn?$AAo?$AAu?$AAg?$AAh?$AA?5?$AAs?$AAp?$AAa?$AAc?$AAe?$AA?5?$AAf?$AAo?$AAr?$AA?5?$AAl?$AAo@ 100155e8     LIBCMT:crt0msg.obj
 0002:00000650       ??_C@_1MG@ENCOOIDF@?$AAR?$AA6?$AA0?$AA3?$AA1?$AA?$AN?$AA?6?$AA?9?$AA?5?$AAA?$AAt?$AAt?$AAe?$AAm?$AAp?$AAt?$AA?5?$AAt?$AAo?$AA?5?$AAi?$AAn?$AAi?$AAt?$AAi?$AAa?$AAl?$AAi?$AAz?$AAe?$AA?5?$AAt@ 10015650     LIBCMT:crt0msg.obj
 0002:00000718       ??_C@_1DO@BMFCDCD@?$AAR?$AA6?$AA0?$AA3?$AA0?$AA?$AN?$AA?6?$AA?9?$AA?5?$AAC?$AAR?$AAT?$AA?5?$AAn?$AAo?$AAt?$AA?5?$AAi?$AAn?$AAi?$AAt?$AAi?$AAa?$AAl?$AAi?$AAz?$AAe?$AAd?$AA?$AN?$AA?6?$AA?$AA@ 10015718     LIBCMT:crt0msg.obj
 0002:00000758       ??_C@_1EK@HHFLMAOL@?$AAR?$AA6?$AA0?$AA2?$AA8?$AA?$AN?$AA?6?$AA?9?$AA?5?$AAu?$AAn?$AAa?$AAb?$AAl?$AAe?$AA?5?$AAt?$AAo?$AA?5?$AAi?$AAn?$AAi?$AAt?$AAi?$AAa?$AAl?$AAi?$AAz?$AAe?$AA?5?$AAh?$AAe@ 10015758     LIBCMT:crt0msg.obj
 0002:000007a8       ??_C@_1GK@MFGOKLAG@?$AAR?$AA6?$AA0?$AA2?$AA7?$AA?$AN?$AA?6?$AA?9?$AA?5?$AAn?$AAo?$AAt?$AA?5?$AAe?$AAn?$AAo?$AAu?$AAg?$AAh?$AA?5?$AAs?$AAp?$AAa?$AAc?$AAe?$AA?5?$AAf?$AAo?$AAr?$AA?5?$AAl?$AAo@ 100157a8     LIBCMT:crt0msg.obj
 0002:00000818       ??_C@_1GK@MCAAGJMO@?$AAR?$AA6?$AA0?$AA2?$AA6?$AA?$AN?$AA?6?$AA?9?$AA?5?$AAn?$AAo?$AAt?$AA?5?$AAe?$AAn?$AAo?$AAu?$AAg?$AAh?$AA?5?$AAs?$AAp?$AAa?$AAc?$AAe?$AA?5?$AAf?$AAo?$AAr?$AA?5?$AAs?$AAt@ 10015818     LIBCMT:crt0msg.obj
 0002:00000888       ??_C@_1EM@MAADIHMB@?$AAR?$AA6?$AA0?$AA2?$AA5?$AA?$AN?$AA?6?$AA?9?$AA?5?$AAp?$AAu?$AAr?$AAe?$AA?5?$AAv?$AAi?$AAr?$AAt?$AAu?$AAa?$AAl?$AA?5?$AAf?$AAu?$AAn?$AAc?$AAt?$AAi?$AAo?$AAn?$AA?5?$AAc@ 10015888     LIBCMT:crt0msg.obj
 0002:000008d8       ??_C@_1GK@FHCKBEFA@?$AAR?$AA6?$AA0?$AA2?$AA4?$AA?$AN?$AA?6?$AA?9?$AA?5?$AAn?$AAo?$AAt?$AA?5?$AAe?$AAn?$AAo?$AAu?$AAg?$AAh?$AA?5?$AAs?$AAp?$AAa?$AAc?$AAe?$AA?5?$AAf?$AAo?$AAr?$AA?5?$AA_?$AAo@ 100158d8     LIBCMT:crt0msg.obj
 0002:00000948       ??_C@_1FC@ECHBIFBC@?$AAR?$AA6?$AA0?$AA1?$AA9?$AA?$AN?$AA?6?$AA?9?$AA?5?$AAu?$AAn?$AAa?$AAb?$AAl?$AAe?$AA?5?$AAt?$AAo?$AA?5?$AAo?$AAp?$AAe?$AAn?$AA?5?$AAc?$AAo?$AAn?$AAs?$AAo?$AAl?$AAe?$AA?5@ 10015948     LIBCMT:crt0msg.obj
 0002:000009a0       ??_C@_1EC@JIBHAOPH@?$AAR?$AA6?$AA0?$AA1?$AA8?$AA?$AN?$AA?6?$AA?9?$AA?5?$AAu?$AAn?$AAe?$AAx?$AAp?$AAe?$AAc?$AAt?$AAe?$AAd?$AA?5?$AAh?$AAe?$AAa?$AAp?$AA?5?$AAe?$AAr?$AAr?$AAo?$AAr?$AA?$AN?$AA?6@ 100159a0     LIBCMT:crt0msg.obj
 0002:000009e8       ??_C@_1FK@BEOGODMC@?$AAR?$AA6?$AA0?$AA1?$AA7?$AA?$AN?$AA?6?$AA?9?$AA?5?$AAu?$AAn?$AAe?$AAx?$AAp?$AAe?$AAc?$AAt?$AAe?$AAd?$AA?5?$AAm?$AAu?$AAl?$AAt?$AAi?$AAt?$AAh?$AAr?$AAe?$AAa?$AAd?$AA?5@ 100159e8     LIBCMT:crt0msg.obj
 0002:00000a48       ??_C@_1FI@LOGNIKDM@?$AAR?$AA6?$AA0?$AA1?$AA6?$AA?$AN?$AA?6?$AA?9?$AA?5?$AAn?$AAo?$AAt?$AA?5?$AAe?$AAn?$AAo?$AAu?$AAg?$AAh?$AA?5?$AAs?$AAp?$AAa?$AAc?$AAe?$AA?5?$AAf?$AAo?$AAr?$AA?5?$AAt?$AAh@ 10015a48     LIBCMT:crt0msg.obj
 0002:00000aa0       ??_C@_1EG@BEHAGFJD@?$AAR?$AA6?$AA0?$AA1?$AA0?$AA?$AN?$AA?6?$AA?9?$AA?5?$AAa?$AAb?$AAo?$AAr?$AAt?$AA?$CI?$AA?$CJ?$AA?5?$AAh?$AAa?$AAs?$AA?5?$AAb?$AAe?$AAe?$AAn?$AA?5?$AAc?$AAa?$AAl?$AAl?$AAe?$AAd@ 10015aa0     LIBCMT:crt0msg.obj
 0002:00000ae8       ??_C@_1FI@HONFMGBI@?$AAR?$AA6?$AA0?$AA0?$AA9?$AA?$AN?$AA?6?$AA?9?$AA?5?$AAn?$AAo?$AAt?$AA?5?$AAe?$AAn?$AAo?$AAu?$AAg?$AAh?$AA?5?$AAs?$AAp?$AAa?$AAc?$AAe?$AA?5?$AAf?$AAo?$AAr?$AA?5?$AAe?$AAn@ 10015ae8     LIBCMT:crt0msg.obj
 0002:00000b40       ??_C@_1FE@LLNEDJMD@?$AAR?$AA6?$AA0?$AA0?$AA8?$AA?$AN?$AA?6?$AA?9?$AA?5?$AAn?$AAo?$AAt?$AA?5?$AAe?$AAn?$AAo?$AAu?$AAg?$AAh?$AA?5?$AAs?$AAp?$AAa?$AAc?$AAe?$AA?5?$AAf?$AAo?$AAr?$AA?5?$AAa?$AAr@ 10015b40     LIBCMT:crt0msg.obj
 0002:00000b98       ??_C@_1FK@PGACCAFB@?$AAR?$AA6?$AA0?$AA0?$AA2?$AA?$AN?$AA?6?$AA?9?$AA?5?$AAf?$AAl?$AAo?$AAa?$AAt?$AAi?$AAn?$AAg?$AA?5?$AAp?$AAo?$AAi?$AAn?$AAt?$AA?5?$AAs?$AAu?$AAp?$AAp?$AAo?$AAr?$AAt?$AA?5@ 10015b98     LIBCMT:crt0msg.obj
 0002:00000ca8       ??_C@_1EK@MBDPDCGA@?$AAM?$AAi?$AAc?$AAr?$AAo?$AAs?$AAo?$AAf?$AAt?$AA?5?$AAV?$AAi?$AAs?$AAu?$AAa?$AAl?$AA?5?$AAC?$AA?$CL?$AA?$CL?$AA?5?$AAR?$AAu?$AAn?$AAt?$AAi?$AAm?$AAe?$AA?5?$AAL?$AAi?$AAb@ 10015ca8     LIBCMT:crt0msg.obj
 0002:00000cf4       ??_C@_15IABLJNFO@?$AA?6?$AA?6?$AA?$AA@ 10015cf4     LIBCMT:crt0msg.obj
 0002:00000cfc       ??_C@_17LGKOMLJ@?$AA?4?$AA?4?$AA?4?$AA?$AA@ 10015cfc     LIBCMT:crt0msg.obj
 0002:00000d04       ??_C@_1CO@EAEJAADC@?$AA?$DM?$AAp?$AAr?$AAo?$AAg?$AAr?$AAa?$AAm?$AA?5?$AAn?$AAa?$AAm?$AAe?$AA?5?$AAu?$AAn?$AAk?$AAn?$AAo?$AAw?$AAn?$AA?$DO?$AA?$AA@ 10015d04     LIBCMT:crt0msg.obj
 0002:00000d34       ??_C@_1DE@JNGNBFGO@?$AAR?$AAu?$AAn?$AAt?$AAi?$AAm?$AAe?$AA?5?$AAE?$AAr?$AAr?$AAo?$AAr?$AA?$CB?$AA?6?$AA?6?$AAP?$AAr?$AAo?$AAg?$AAr?$AAa?$AAm?$AA?3?$AA?5?$AA?$AA@ 10015d34     LIBCMT:crt0msg.obj
 0002:00000d88       ??_C@_1BK@DBDEIDLH@?$AAK?$AAE?$AAR?$AAN?$AAE?$AAL?$AA3?$AA2?$AA?4?$AAD?$AAL?$AAL?$AA?$AA@ 10015d88     LIBCMT:tidtable.obj
 0002:00000da4       ??_C@_07PEJMOBNF@FlsFree?$AA@ 10015da4     LIBCMT:tidtable.obj
 0002:00000dac       ??_C@_0M@JCPCPOEF@FlsSetValue?$AA@ 10015dac     LIBCMT:tidtable.obj
 0002:00000db8       ??_C@_0M@GDNOONDI@FlsGetValue?$AA@ 10015db8     LIBCMT:tidtable.obj
 0002:00000dc4       ??_C@_08KNHFBNJ@FlsAlloc?$AA@ 10015dc4     LIBCMT:tidtable.obj
 0002:00000dd0       __XcptActTab               10015dd0     LIBCMT:winxfltr.obj
 0002:00000e60       __First_FPE_Indx           10015e60     LIBCMT:winxfltr.obj
 0002:00000e64       __Num_FPE                  10015e64     LIBCMT:winxfltr.obj
 0002:00000e68       __XcptActTabSize           10015e68     LIBCMT:winxfltr.obj
 0002:00000e6c       __XcptActTabCount          10015e6c     LIBCMT:winxfltr.obj
 0002:00000e70       ??_C@_05KLBDPFGC@e?$CL000?$AA@ 10015e70     LIBCMT:cvt.obj
 0002:00000e78       ??_C@_1BC@GDGBMEMK@?$AAH?$AAH?$AA?3?$AAm?$AAm?$AA?3?$AAs?$AAs?$AA?$AA@ 10015e78     LIBCMT:nlsdata2.obj
 0002:00000e8c       ??_C@_1CI@KNAKOEBC@?$AAd?$AAd?$AAd?$AAd?$AA?0?$AA?5?$AAM?$AAM?$AAM?$AAM?$AA?5?$AAd?$AAd?$AA?0?$AA?5?$AAy?$AAy?$AAy?$AAy?$AA?$AA@ 10015e8c     LIBCMT:nlsdata2.obj
 0002:00000eb4       ??_C@_1BC@IEBCMHCM@?$AAM?$AAM?$AA?1?$AAd?$AAd?$AA?1?$AAy?$AAy?$AA?$AA@ 10015eb4     LIBCMT:nlsdata2.obj
 0002:00000ec8       ??_C@_15CLMNNGEL@?$AAP?$AAM?$AA?$AA@ 10015ec8     LIBCMT:nlsdata2.obj
 0002:00000ed0       ??_C@_15ODEHAHHF@?$AAA?$AAM?$AA?$AA@ 10015ed0     LIBCMT:nlsdata2.obj
 0002:00000ed8       ??_C@_1BC@FEMKIFH@?$AAD?$AAe?$AAc?$AAe?$AAm?$AAb?$AAe?$AAr?$AA?$AA@ 10015ed8     LIBCMT:nlsdata2.obj
 0002:00000eec       ??_C@_1BC@BGLIFPF@?$AAN?$AAo?$AAv?$AAe?$AAm?$AAb?$AAe?$AAr?$AA?$AA@ 10015eec     LIBCMT:nlsdata2.obj
 0002:00000f00       ??_C@_1BA@EPANDLNG@?$AAO?$AAc?$AAt?$AAo?$AAb?$AAe?$AAr?$AA?$AA@ 10015f00     LIBCMT:nlsdata2.obj
 0002:00000f10       ??_C@_1BE@DKAAMBJL@?$AAS?$AAe?$AAp?$AAt?$AAe?$AAm?$AAb?$AAe?$AAr?$AA?$AA@ 10015f10     LIBCMT:nlsdata2.obj
 0002:00000f24       ??_C@_1O@PAHLKOAC@?$AAA?$AAu?$AAg?$AAu?$AAs?$AAt?$AA?$AA@ 10015f24     LIBCMT:nlsdata2.obj
 0002:00000f34       ??_C@_19BIFMLPCD@?$AAJ?$AAu?$AAl?$AAy?$AA?$AA@ 10015f34     LIBCMT:nlsdata2.obj
 0002:00000f40       ??_C@_19EPFLPGAP@?$AAJ?$AAu?$AAn?$AAe?$AA?$AA@ 10015f40     LIBCMT:nlsdata2.obj
 0002:00000f4c       ??_C@_1M@GJNLMHFD@?$AAA?$AAp?$AAr?$AAi?$AAl?$AA?$AA@ 10015f4c     LIBCMT:nlsdata2.obj
 0002:00000f58       ??_C@_1M@IKEENEDF@?$AAM?$AAa?$AAr?$AAc?$AAh?$AA?$AA@ 10015f58     LIBCMT:nlsdata2.obj
 0002:00000f64       ??_C@_1BC@JGDDFFAM@?$AAF?$AAe?$AAb?$AAr?$AAu?$AAa?$AAr?$AAy?$AA?$AA@ 10015f64     LIBCMT:nlsdata2.obj
 0002:00000f78       ??_C@_1BA@EFMEIEBA@?$AAJ?$AAa?$AAn?$AAu?$AAa?$AAr?$AAy?$AA?$AA@ 10015f78     LIBCMT:nlsdata2.obj
 0002:00000f88       ??_C@_17EGKACKIF@?$AAD?$AAe?$AAc?$AA?$AA@ 10015f88     LIBCMT:nlsdata2.obj
 0002:00000f90       ??_C@_17BBDMLCIG@?$AAN?$AAo?$AAv?$AA?$AA@ 10015f90     LIBCMT:nlsdata2.obj
 0002:00000f98       ??_C@_17FNLKOI@?$AAO?$AAc?$AAt?$AA?$AA@ 10015f98     LIBCMT:nlsdata2.obj
 0002:00000fa0       ??_C@_17HCHCOKMG@?$AAS?$AAe?$AAp?$AA?$AA@ 10015fa0     LIBCMT:nlsdata2.obj
 0002:00000fa8       ??_C@_17ICPELBCN@?$AAA?$AAu?$AAg?$AA?$AA@ 10015fa8     LIBCMT:nlsdata2.obj
 0002:00000fb0       ??_C@_17IJPCKHK@?$AAJ?$AAu?$AAl?$AA?$AA@ 10015fb0     LIBCMT:nlsdata2.obj
 0002:00000fb8       ??_C@_17KCJGOCPB@?$AAJ?$AAu?$AAn?$AA?$AA@ 10015fb8     LIBCMT:nlsdata2.obj
 0002:00000fc0       ??_C@_17PNNKMEED@?$AAM?$AAa?$AAy?$AA?$AA@ 10015fc0     LIBCMT:nlsdata2.obj
 0002:00000fc8       ??_C@_17LFPOIHDD@?$AAA?$AAp?$AAr?$AA?$AA@ 10015fc8     LIBCMT:nlsdata2.obj
 0002:00000fd0       ??_C@_17CKNLEDEC@?$AAM?$AAa?$AAr?$AA?$AA@ 10015fd0     LIBCMT:nlsdata2.obj
 0002:00000fd8       ??_C@_17LMDJEKJN@?$AAF?$AAe?$AAb?$AA?$AA@ 10015fd8     LIBCMT:nlsdata2.obj
 0002:00000fe0       ??_C@_17DKNBKCHM@?$AAJ?$AAa?$AAn?$AA?$AA@ 10015fe0     LIBCMT:nlsdata2.obj
 0002:00000fe8       ??_C@_1BC@ENMNNPAJ@?$AAS?$AAa?$AAt?$AAu?$AAr?$AAd?$AAa?$AAy?$AA?$AA@ 10015fe8     LIBCMT:nlsdata2.obj
 0002:00000ffc       ??_C@_1O@PDICJHAG@?$AAF?$AAr?$AAi?$AAd?$AAa?$AAy?$AA?$AA@ 10015ffc     LIBCMT:nlsdata2.obj
 0002:0000100c       ??_C@_1BC@HHMNLIHE@?$AAT?$AAh?$AAu?$AAr?$AAs?$AAd?$AAa?$AAy?$AA?$AA@ 1001600c     LIBCMT:nlsdata2.obj
 0002:00001020       ??_C@_1BE@EBOGMDOH@?$AAW?$AAe?$AAd?$AAn?$AAe?$AAs?$AAd?$AAa?$AAy?$AA?$AA@ 10016020     LIBCMT:nlsdata2.obj
 0002:00001034       ??_C@_1BA@ENFBFFEK@?$AAT?$AAu?$AAe?$AAs?$AAd?$AAa?$AAy?$AA?$AA@ 10016034     LIBCMT:nlsdata2.obj
 0002:00001044       ??_C@_1O@MMNBFLIA@?$AAM?$AAo?$AAn?$AAd?$AAa?$AAy?$AA?$AA@ 10016044     LIBCMT:nlsdata2.obj
 0002:00001054       ??_C@_1O@IHNHDHPB@?$AAS?$AAu?$AAn?$AAd?$AAa?$AAy?$AA?$AA@ 10016054     LIBCMT:nlsdata2.obj
 0002:00001064       ??_C@_17GGIBDPIH@?$AAS?$AAa?$AAt?$AA?$AA@ 10016064     LIBCMT:nlsdata2.obj
 0002:0000106c       ??_C@_17HFOLPPLP@?$AAF?$AAr?$AAi?$AA?$AA@ 1001606c     LIBCMT:nlsdata2.obj
 0002:00001074       ??_C@_17PDPHAADD@?$AAT?$AAh?$AAu?$AA?$AA@ 10016074     LIBCMT:nlsdata2.obj
 0002:0000107c       ??_C@_17CJEDCEPE@?$AAW?$AAe?$AAd?$AA?$AA@ 1001607c     LIBCMT:nlsdata2.obj
 0002:00001084       ??_C@_17BMKGEGOJ@?$AAT?$AAu?$AAe?$AA?$AA@ 10016084     LIBCMT:nlsdata2.obj
 0002:0000108c       ??_C@_17KBOMKBF@?$AAM?$AAo?$AAn?$AA?$AA@ 1001608c     LIBCMT:nlsdata2.obj
 0002:00001094       ??_C@_17MBGCMIPB@?$AAS?$AAu?$AAn?$AA?$AA@ 10016094     LIBCMT:nlsdata2.obj
 0002:0000109c       ??_C@_08JCCMCCIL@HH?3mm?3ss?$AA@ 1001609c     LIBCMT:nlsdata2.obj
 0002:000010a8       ??_C@_0BE@CKGJFCPC@dddd?0?5MMMM?5dd?0?5yyyy?$AA@ 100160a8     LIBCMT:nlsdata2.obj
 0002:000010bc       ??_C@_08BPBNCDIB@MM?1dd?1yy?$AA@ 100160bc     LIBCMT:nlsdata2.obj
 0002:000010c8       ??_C@_02CJNFDJBF@PM?$AA@   100160c8     LIBCMT:nlsdata2.obj
 0002:000010cc       ??_C@_02DEDBPAFC@AM?$AA@   100160cc     LIBCMT:nlsdata2.obj
 0002:000010d0       ??_C@_08EDHMEBNP@December?$AA@ 100160d0     LIBCMT:nlsdata2.obj
 0002:000010dc       ??_C@_08HCHEGEOA@November?$AA@ 100160dc     LIBCMT:nlsdata2.obj
 0002:000010e8       ??_C@_07JJNFCEND@October?$AA@ 100160e8     LIBCMT:nlsdata2.obj
 0002:000010f0       ??_C@_09BHHEALKD@September?$AA@ 100160f0     LIBCMT:nlsdata2.obj
 0002:000010fc       ??_C@_06LBBHFDDG@August?$AA@ 100160fc     LIBCMT:nlsdata2.obj
 0002:00001104       ??_C@_04MIEPOIFP@July?$AA@ 10016104     LIBCMT:nlsdata2.obj
 0002:0000110c       ??_C@_04CNLMGBGM@June?$AA@ 1001610c     LIBCMT:nlsdata2.obj
 0002:00001114       ??_C@_05DMJDNLEJ@April?$AA@ 10016114     LIBCMT:nlsdata2.obj
 0002:0000111c       ??_C@_05HPCKOFNC@March?$AA@ 1001611c     LIBCMT:nlsdata2.obj
 0002:00001124       ??_C@_08GNJGEPFN@February?$AA@ 10016124     LIBCMT:nlsdata2.obj
 0002:00001130       ??_C@_07CGJPFGJA@January?$AA@ 10016130     LIBCMT:nlsdata2.obj
 0002:00001138       ??_C@_03MKABNOCG@Dec?$AA@  10016138     LIBCMT:nlsdata2.obj
 0002:0000113c       ??_C@_03JPJOFNIA@Nov?$AA@  1001613c     LIBCMT:nlsdata2.obj
 0002:00001140       ??_C@_03BMAOKBAD@Oct?$AA@  10016140     LIBCMT:nlsdata2.obj
 0002:00001144       ??_C@_03GGCAPAJC@Sep?$AA@  10016144     LIBCMT:nlsdata2.obj
 0002:00001148       ??_C@_03IFJFEIGA@Aug?$AA@  10016148     LIBCMT:nlsdata2.obj
 0002:0000114c       ??_C@_03LBGABGKK@Jul?$AA@  1001614c     LIBCMT:nlsdata2.obj
 0002:00001150       ??_C@_03IDFGHECI@Jun?$AA@  10016150     LIBCMT:nlsdata2.obj
 0002:00001154       ??_C@_03CNMDKL@May?$AA@    10016154     LIBCMT:nlsdata2.obj
 0002:00001158       ??_C@_03LEOLGMJP@Apr?$AA@  10016158     LIBCMT:nlsdata2.obj
 0002:0000115c       ??_C@_03ODNJBKGA@Mar?$AA@  1001615c     LIBCMT:nlsdata2.obj
 0002:00001160       ??_C@_03HJBDCHOM@Feb?$AA@  10016160     LIBCMT:nlsdata2.obj
 0002:00001164       ??_C@_03JIHJHPIE@Jan?$AA@  10016164     LIBCMT:nlsdata2.obj
 0002:00001168       ??_C@_08INBOOONO@Saturday?$AA@ 10016168     LIBCMT:nlsdata2.obj
 0002:00001174       ??_C@_06JECMNKMI@Friday?$AA@ 10016174     LIBCMT:nlsdata2.obj
 0002:0000117c       ??_C@_08HACCIKIA@Thursday?$AA@ 1001617c     LIBCMT:nlsdata2.obj
 0002:00001188       ??_C@_09DLIGFAKA@Wednesday?$AA@ 10016188     LIBCMT:nlsdata2.obj
 0002:00001194       ??_C@_07BAAGCFCM@Tuesday?$AA@ 10016194     LIBCMT:nlsdata2.obj
 0002:0000119c       ??_C@_06JLEDEDGH@Monday?$AA@ 1001619c     LIBCMT:nlsdata2.obj
 0002:000011a4       ??_C@_06OOPIFAJ@Sunday?$AA@ 100161a4     LIBCMT:nlsdata2.obj
 0002:000011ac       ??_C@_03FEFJNEK@Sat?$AA@   100161ac     LIBCMT:nlsdata2.obj
 0002:000011b0       ??_C@_03IDIOELNC@Fri?$AA@  100161b0     LIBCMT:nlsdata2.obj
 0002:000011b4       ??_C@_03IOFIKPDN@Thu?$AA@  100161b4     LIBCMT:nlsdata2.obj
 0002:000011b8       ??_C@_03MHOMLAJA@Wed?$AA@  100161b8     LIBCMT:nlsdata2.obj
 0002:000011bc       ??_C@_03NAGEINEP@Tue?$AA@  100161bc     LIBCMT:nlsdata2.obj
 0002:000011c0       ??_C@_03PDAGKDH@Mon?$AA@   100161c0     LIBCMT:nlsdata2.obj
 0002:000011c4       ??_C@_03KOEHGMDN@Sun?$AA@  100161c4     LIBCMT:nlsdata2.obj
 0002:00001248       ??_C@_01NEMOKFLO@?$DN?$AA@ 10016248     LIBCMT:setlocal.obj
 0002:0000124a       ??_C@_00CNPNBAHC@?$AA@     1001624a     LIBCMT:setlocal.obj
 0002:0000124c       ??_C@_0BK@CFCOFLF@?5Complete?5Object?5Locator?8?$AA@ 1001624c     LIBCMT:undname.obj
 0002:00001268       ??_C@_0BN@MECKDCOJ@?5Class?5Hierarchy?5Descriptor?8?$AA@ 10016268     LIBCMT:undname.obj
 0002:00001288       ??_C@_0BD@LGICGFMM@?5Base?5Class?5Array?8?$AA@ 10016288     LIBCMT:undname.obj
 0002:0000129c       ??_C@_0BM@LDKODKLH@?5Base?5Class?5Descriptor?5at?5?$CI?$AA@ 1001629c     LIBCMT:undname.obj
 0002:000012b8       ??_C@_0BC@DAFEJGAK@?5Type?5Descriptor?8?$AA@ 100162b8     LIBCMT:undname.obj
 0002:000012cc       ??_C@_0BM@PMGGMLDN@?$GAlocal?5static?5thread?5guard?8?$AA@ 100162cc     LIBCMT:undname.obj
 0002:000012e8       ??_C@_0CL@FGIJHLCE@?$GAmanaged?5vector?5copy?5constructor@ 100162e8     LIBCMT:undname.obj
 0002:00001314       ??_C@_0CJ@GJELGAMM@?$GAvector?5vbase?5copy?5constructor?5i@ 10016314     LIBCMT:undname.obj
 0002:00001340       ??_C@_0CD@CGAJBKEJ@?$GAvector?5copy?5constructor?5iterato@ 10016340     LIBCMT:undname.obj
 0002:00001364       ??_C@_0CB@PDBIFEP@?$GAdynamic?5atexit?5destructor?5for?5?8@ 10016364     LIBCMT:undname.obj
 0002:00001388       ??_C@_0BL@CLIPGLGB@?$GAdynamic?5initializer?5for?5?8?$AA@ 10016388     LIBCMT:undname.obj
 0002:000013a4       ??_C@_0CM@FCBBDIGB@?$GAeh?5vector?5vbase?5copy?5constructo@ 100163a4     LIBCMT:undname.obj
 0002:000013d0       ??_C@_0CG@HLDDJMAG@?$GAeh?5vector?5copy?5constructor?5iter@ 100163d0     LIBCMT:undname.obj
 0002:000013f8       ??_C@_0CF@IMGKMJNO@?$GAmanaged?5vector?5destructor?5itera@ 100163f8     LIBCMT:undname.obj
 0002:00001420       ??_C@_0CG@CFDHKGGD@?$GAmanaged?5vector?5constructor?5iter@ 10016420     LIBCMT:undname.obj
 0002:00001448       ??_C@_0BN@CKNJLHMB@?$GAplacement?5delete?$FL?$FN?5closure?8?$AA@ 10016448     LIBCMT:undname.obj
 0002:00001468       ??_C@_0BL@CNOONJFP@?$GAplacement?5delete?5closure?8?$AA@ 10016468     LIBCMT:undname.obj
 0002:00001484       ??_C@_0P@HJKNJFNN@?$GAomni?5callsig?8?$AA@ 10016484     LIBCMT:undname.obj
 0002:00001494       ??_C@_09LBNFPBCA@?5delete?$FL?$FN?$AA@ 10016494     LIBCMT:undname.obj
 0002:000014a0       ??_C@_06FHBGPFGH@?5new?$FL?$FN?$AA@ 100164a0     LIBCMT:undname.obj
 0002:000014a8       ??_C@_0CE@IIHCMGGL@?$GAlocal?5vftable?5constructor?5closu@ 100164a8     LIBCMT:undname.obj
 0002:000014cc       ??_C@_0BA@KKLDJDLB@?$GAlocal?5vftable?8?$AA@ 100164cc     LIBCMT:undname.obj
 0002:000014dc       ??_C@_05KHLCHHI@?$GARTTI?$AA@ 100164dc     LIBCMT:undname.obj
 0002:000014e4       ??_C@_03KLGMFNMG@?$GAEH?$AA@ 100164e4     LIBCMT:undname.obj
 0002:000014e8       ??_C@_0BA@KBCDOMBN@?$GAudt?5returning?8?$AA@ 100164e8     LIBCMT:undname.obj
 0002:000014f8       ??_C@_0BL@LLKPOHJI@?$GAcopy?5constructor?5closure?8?$AA@ 100164f8     LIBCMT:undname.obj
 0002:00001514       ??_C@_0CH@OOJPLCPH@?$GAeh?5vector?5vbase?5constructor?5ite@ 10016514     LIBCMT:undname.obj
 0002:0000153c       ??_C@_0CA@GCEOPDGL@?$GAeh?5vector?5destructor?5iterator?8?$AA@ 1001653c     LIBCMT:undname.obj
 0002:0000155c       ??_C@_0CB@JONCMFFK@?$GAeh?5vector?5constructor?5iterator?8@ 1001655c     LIBCMT:undname.obj
 0002:00001580       ??_C@_0BL@NILFHHPC@?$GAvirtual?5displacement?5map?8?$AA@ 10016580     LIBCMT:undname.obj
 0002:0000159c       ??_C@_0CE@IKBNEHA@?$GAvector?5vbase?5constructor?5iterat@ 1001659c     LIBCMT:undname.obj
 0002:000015c0       ??_C@_0BN@LFPFMEDL@?$GAvector?5destructor?5iterator?8?$AA@ 100165c0     LIBCMT:undname.obj
 0002:000015e0       ??_C@_0BO@PFGOCPJJ@?$GAvector?5constructor?5iterator?8?$AA@ 100165e0     LIBCMT:undname.obj
 0002:00001600       ??_C@_0BN@IMDCHIKM@?$GAscalar?5deleting?5destructor?8?$AA@ 10016600     LIBCMT:undname.obj
 0002:00001620       ??_C@_0BO@OBMKPJIG@?$GAdefault?5constructor?5closure?8?$AA@ 10016620     LIBCMT:undname.obj
 0002:00001640       ??_C@_0BN@DEGPLNFK@?$GAvector?5deleting?5destructor?8?$AA@ 10016640     LIBCMT:undname.obj
 0002:00001660       ??_C@_0BD@JDLKDPAB@?$GAvbase?5destructor?8?$AA@ 10016660     LIBCMT:undname.obj
 0002:00001674       ??_C@_08OBABFOLI@?$GAstring?8?$AA@ 10016674     LIBCMT:undname.obj
 0002:00001680       ??_C@_0BF@KDPPACIK@?$GAlocal?5static?5guard?8?$AA@ 10016680     LIBCMT:undname.obj
 0002:00001698       ??_C@_08LLFFHHDJ@?$GAtypeof?8?$AA@ 10016698     LIBCMT:undname.obj
 0002:000016a4       ??_C@_07FEEIOKP@?$GAvcall?8?$AA@ 100166a4     LIBCMT:undname.obj
 0002:000016ac       ??_C@_09BLBHBJP@?$GAvbtable?8?$AA@ 100166ac     LIBCMT:undname.obj
 0002:000016b8       ??_C@_09IFPLHPGF@?$GAvftable?8?$AA@ 100166b8     LIBCMT:undname.obj
 0002:000016c4       ??_C@_02MHEGNOJ@?$FO?$DN?$AA@ 100166c4     LIBCMT:undname.obj
 0002:000016c8       ??_C@_02DHLNPPGH@?$HM?$DN?$AA@ 100166c8     LIBCMT:undname.obj
 0002:000016cc       ??_C@_02FGJGFEAB@?$CG?$DN?$AA@ 100166cc     LIBCMT:undname.obj
 0002:000016d0       ??_C@_03CDNPDDLA@?$DM?$DM?$DN?$AA@ 100166d0     LIBCMT:undname.obj
 0002:000016d4       ??_C@_03IKFCCPFF@?$DO?$DO?$DN?$AA@ 100166d4     LIBCMT:undname.obj
 0002:000016d8       ??_C@_02FENAOKFI@?$CF?$DN?$AA@ 100166d8     LIBCMT:undname.obj
 0002:000016dc       ??_C@_02FJEHGPIO@?1?$DN?$AA@ 100166dc     LIBCMT:undname.obj
 0002:000016e0       ??_C@_02FKMDLLOA@?9?$DN?$AA@ 100166e0     LIBCMT:undname.obj
 0002:000016e4       ??_C@_02FOEOMHFC@?$CL?$DN?$AA@ 100166e4     LIBCMT:undname.obj
 0002:000016e8       ??_C@_02FPIMKNGF@?$CK?$DN?$AA@ 100166e8     LIBCMT:undname.obj
 0002:000016ec       ??_C@_02NONPIBCD@?$HM?$HM?$AA@ 100166ec     LIBCMT:undname.obj
 0002:000016f0       ??_C@_02PPKAJPJL@?$CG?$CG?$AA@ 100166f0     LIBCMT:undname.obj
 0002:000016f4       ??_C@_01DNKMNLPK@?$HM?$AA@ 100166f4     LIBCMT:undname.obj
 0002:000016f8       ??_C@_01JKBOJNNK@?$FO?$AA@ 100166f8     LIBCMT:undname.obj
 0002:000016fc       ??_C@_01PJKLJHI@?$HO?$AA@  100166fc     LIBCMT:undname.obj
 0002:00001700       ??_C@_02HCKGKOFO@?$CI?$CJ?$AA@ 10016700     LIBCMT:undname.obj
 0002:00001704       ??_C@_01IHBHIGKO@?0?$AA@   10016704     LIBCMT:undname.obj
 0002:00001708       ??_C@_02EEKDKGMJ@?$DO?$DN?$AA@ 10016708     LIBCMT:undname.obj
 0002:0000170c       ??_C@_01PPODPGHN@?$DO?$AA@ 1001670c     LIBCMT:undname.obj
 0002:00001710       ??_C@_02EHCHHCKH@?$DM?$DN?$AA@ 10016710     LIBCMT:undname.obj
 0002:00001714       ??_C@_01MNNFJEPP@?$DM?$AA@ 10016714     LIBCMT:undname.obj
 0002:00001718       ??_C@_01FGNFDNOH@?$CF?$AA@ 10016718     LIBCMT:undname.obj
 0002:0000171c       ??_C@_01KMDKNFGN@?1?$AA@   1001671c     LIBCMT:undname.obj
 0002:00001720       ??_C@_03MNHNFDLC@?9?$DO?$CK?$AA@ 10016720     LIBCMT:undname.obj
 0002:00001724       ??_C@_01HNPIGOCE@?$CG?$AA@ 10016724     LIBCMT:undname.obj
 0002:00001728       ??_C@_01MIFGBAGJ@?$CL?$AA@ 10016728     LIBCMT:undname.obj
 0002:0000172c       ??_C@_02BAABKJLB@?9?9?$AA@ 1001672c     LIBCMT:undname.obj
 0002:00001730       ??_C@_02ECNGHCIF@?$CL?$CL?$AA@ 10016730     LIBCMT:undname.obj
 0002:00001734       ??_C@_01NBENCBCI@?$CK?$AA@ 10016734     LIBCMT:undname.obj
 0002:00001738       ??_C@_02HBOOOICD@?9?$DO?$AA@ 10016738     LIBCMT:undname.obj
 0002:0000173c       ??_C@_08LHJFAFGD@operator?$AA@ 1001673c     LIBCMT:undname.obj
 0002:00001748       ??_C@_02GPECMEKF@?$FL?$FN?$AA@ 10016748     LIBCMT:undname.obj
 0002:0000174c       ??_C@_02FDNJECIE@?$CB?$DN?$AA@ 1001674c     LIBCMT:undname.obj
 0002:00001750       ??_C@_02EGOFBIJA@?$DN?$DN?$AA@ 10016750     LIBCMT:undname.obj
 0002:00001754       ??_C@_01DCLJPIOD@?$CB?$AA@ 10016754     LIBCMT:undname.obj
 0002:00001758       ??_C@_02FODMEDOG@?$DM?$DM?$AA@ 10016758     LIBCMT:undname.obj
 0002:0000175c       ??_C@_02GPIOPFAK@?$DO?$DO?$AA@ 1001675c     LIBCMT:undname.obj
 0002:00001760       ??_C@_07FPCDHGMM@?5delete?$AA@ 10016760     LIBCMT:undname.obj
 0002:00001768       ??_C@_04NIHEBCM@?5new?$AA@ 10016768     LIBCMT:undname.obj
 0002:00001770       ??_C@_0M@GFIIJFMG@__unaligned?$AA@ 10016770     LIBCMT:undname.obj
 0002:0000177c       ??_C@_0L@PILCLIHE@__restrict?$AA@ 1001677c     LIBCMT:undname.obj
 0002:00001788       ??_C@_07JOMMBBKO@__ptr64?$AA@ 10016788     LIBCMT:undname.obj
 0002:00001790       ??_C@_06GHPCKEAG@__eabi?$AA@ 10016790     LIBCMT:undname.obj
 0002:00001798       ??_C@_09HIJEGCPM@__clrcall?$AA@ 10016798     LIBCMT:undname.obj
 0002:000017a4       ??_C@_0L@JMKHOMEK@__fastcall?$AA@ 100167a4     LIBCMT:undname.obj
 0002:000017b0       ??_C@_0L@NPHFGOKO@__thiscall?$AA@ 100167b0     LIBCMT:undname.obj
 0002:000017bc       ??_C@_09IFJBGAPI@__stdcall?$AA@ 100167bc     LIBCMT:undname.obj
 0002:000017c8       ??_C@_08GHMPAG@__pascal?$AA@ 100167c8     LIBCMT:undname.obj
 0002:000017d4       ??_C@_07KOLFKCDI@__cdecl?$AA@ 100167d4     LIBCMT:undname.obj
 0002:000017dc       ??_C@_08EHJDFFNH@__based?$CI?$AA@ 100167dc     LIBCMT:undname.obj
 0002:0000196c       ??_C@_0BI@DFKBFLJE@GetProcessWindowStation?$AA@ 1001696c     LIBCMT:crtmboxw.obj
 0002:00001984       ??_C@_0BK@DEKFELLI@GetUserObjectInformationW?$AA@ 10016984     LIBCMT:crtmboxw.obj
 0002:000019a0       ??_C@_0BD@HHGDFDBJ@GetLastActivePopup?$AA@ 100169a0     LIBCMT:crtmboxw.obj
 0002:000019b4       ??_C@_0BA@HNOPNCHB@GetActiveWindow?$AA@ 100169b4     LIBCMT:crtmboxw.obj
 0002:000019c4       ??_C@_0M@DLDCCGNP@MessageBoxW?$AA@ 100169c4     LIBCMT:crtmboxw.obj
 0002:000019d0       ??_C@_1BG@GOEBHBDC@?$AAU?$AAS?$AAE?$AAR?$AA3?$AA2?$AA?4?$AAD?$AAL?$AAL?$AA?$AA@ 100169d0     LIBCMT:crtmboxw.obj
 0002:000019e8       ___newctype                100169e8     LIBCMT:ctype.obj
 0002:00001ce8       __wctype                   10016ce8     LIBCMT:ctype.obj
 0002:00001ef0       ___newclmap                10016ef0     LIBCMT:ctype.obj
 0002:00002070       ___newcumap                10017070     LIBCMT:ctype.obj
 0002:000021f0       ??_C@_06IMKFLFPG@1?$CDQNAN?$AA@ 100171f0     LIBCMT:_x10fout_.obj
 0002:000021f8       ??_C@_05DNEBIAHO@1?$CDINF?$AA@ 100171f8     LIBCMT:_x10fout_.obj
 0002:00002200       ??_C@_05PHHOCPM@1?$CDIND?$AA@ 10017200     LIBCMT:_x10fout_.obj
 0002:00002208       ??_C@_06PGGFOGJG@1?$CDSNAN?$AA@ 10017208     LIBCMT:_x10fout_.obj
 0002:00002210       ??_C@_1BA@BALFACEM@?$AAC?$AAO?$AAN?$AAO?$AAU?$AAT?$AA$?$AA?$AA@ 10017210     LIBCMT:initcon.obj
 0002:00002228       ??_7bad_exception@std@@6B@ 10017228     libboost_thread-vc100-mt-s-1_55:thread.obj
 0002:00002234       ??_7clone_base@exception_detail@boost@@6B@ 10017234     libboost_thread-vc100-mt-s-1_55:thread.obj
 0002:00002244       ??_7sp_counted_base@detail@boost@@6B@ 10017244     libboost_thread-vc100-mt-s-1_55:thread.obj
 0002:0000225c       ??_7?$sp_counted_impl_p@V?$clone_impl@Ubad_alloc_@exception_detail@boost@@@exception_detail@boost@@@detail@boost@@6B@ 1001725c     libboost_thread-vc100-mt-s-1_55:thread.obj
 0002:00002274       ??_7?$sp_counted_impl_p@V?$clone_impl@Ubad_exception_@exception_detail@boost@@@exception_detail@boost@@@detail@boost@@6B@ 10017274     libboost_thread-vc100-mt-s-1_55:thread.obj
 0002:00002288       ?fixed_mutex_name@?1??name_once_mutex@detail@boost@@YAXPADPAX@Z@4QBDB 10017288     libboost_thread-vc100-mt-s-1_55:thread.obj
 0002:000022c4       ??_7exception@boost@@6B@   100172c4     libboost_thread-vc100-mt-s-1_55:thread.obj
 0002:000022cc       ??_7bad_alloc_@exception_detail@boost@@6Bbad_alloc@std@@@ 100172cc     libboost_thread-vc100-mt-s-1_55:thread.obj
 0002:000022d8       ??_7bad_alloc_@exception_detail@boost@@6Bexception@2@@ 100172d8     libboost_thread-vc100-mt-s-1_55:thread.obj
 0002:000022e0       ??_7bad_exception_@exception_detail@boost@@6Bbad_exception@std@@@ 100172e0     libboost_thread-vc100-mt-s-1_55:thread.obj
 0002:000022ec       ??_7bad_exception_@exception_detail@boost@@6Bexception@2@@ 100172ec     libboost_thread-vc100-mt-s-1_55:thread.obj
 0002:000022f0       ??_C@_0O@DPKOEFFH@bad?5exception?$AA@ 100172f0     libboost_thread-vc100-mt-s-1_55:thread.obj
 0002:00002304       ??_7?$clone_impl@Ubad_alloc_@exception_detail@boost@@@exception_detail@boost@@6B@ 10017304     libboost_thread-vc100-mt-s-1_55:thread.obj
 0002:00002314       ??_7?$clone_impl@Ubad_alloc_@exception_detail@boost@@@exception_detail@boost@@6Bbad_alloc@std@@@ 10017314     libboost_thread-vc100-mt-s-1_55:thread.obj
 0002:00002320       ??_7?$clone_impl@Ubad_alloc_@exception_detail@boost@@@exception_detail@boost@@6Bexception@2@@ 10017320     libboost_thread-vc100-mt-s-1_55:thread.obj
 0002:00002328       ??_7?$clone_impl@Ubad_exception_@exception_detail@boost@@@exception_detail@boost@@6B@ 10017328     libboost_thread-vc100-mt-s-1_55:thread.obj
 0002:00002338       ??_7?$clone_impl@Ubad_exception_@exception_detail@boost@@@exception_detail@boost@@6Bbad_exception@std@@@ 10017338     libboost_thread-vc100-mt-s-1_55:thread.obj
 0002:00002344       ??_7?$clone_impl@Ubad_exception_@exception_detail@boost@@@exception_detail@boost@@6Bexception@2@@ 10017344     libboost_thread-vc100-mt-s-1_55:thread.obj
 0002:00002348       ??_8?$clone_impl@Ubad_alloc_@exception_detail@boost@@@exception_detail@boost@@7B@ 10017348     libboost_thread-vc100-mt-s-1_55:thread.obj
 0002:00002348       ??_8?$clone_impl@Ubad_exception_@exception_detail@boost@@@exception_detail@boost@@7B@ 10017348     libboost_thread-vc100-mt-s-1_55:thread.obj
 0002:00002350       ??_C@_0CL@EGOLMDBI@?4?2boost?1exception?1detail?1excepti@ 10017350     libboost_thread-vc100-mt-s-1_55:thread.obj
 0002:00002380       ??_C@_0IK@LHEHAGMH@class?5boost?3?3exception_ptr?5__cde@ 10017380     libboost_thread-vc100-mt-s-1_55:thread.obj
 0002:00002410       ??_C@_0IO@BHMGIOEK@class?5boost?3?3exception_ptr?5__cde@ 10017410     libboost_thread-vc100-mt-s-1_55:thread.obj
 0002:000024a0       __pRawDllMainOrig          100174a0     libboost_thread-vc100-mt-s-1_55:tss_pe.obj
 0002:000024a0       __pDefaultRawDllMainOrig   100174a0     libboost_thread-vc100-mt-s-1_55:tss_pe.obj
 0002:000024a4       __pRawDllMain              100174a4     libboost_thread-vc100-mt-s-1_55:tss_pe.obj
 0002:000024ac       ??_7error_category@system@boost@@6B@ 100174ac     libboost_system-vc100-mt-s-1_55:error_code.obj
 0002:000024c8       ??_7system_error_category@?A0x2ad791f3@system@boost@@6B@ 100174c8     libboost_system-vc100-mt-s-1_55:error_code.obj
 0002:000024e0       ??_C@_07DCLBNMLN@generic?$AA@ 100174e0     libboost_system-vc100-mt-s-1_55:error_code.obj
 0002:000024e8       ??_C@_06FHFOAHML@system?$AA@ 100174e8     libboost_system-vc100-mt-s-1_55:error_code.obj
 0002:000024f4       ??_7generic_error_category@?A0x2ad791f3@system@boost@@6B@ 100174f4     libboost_system-vc100-mt-s-1_55:error_code.obj
 0002:0000250c       ??_C@_0O@NIPGCINC@Unknown?5error?$AA@ 1001750c     libboost_system-vc100-mt-s-1_55:error_code.obj
 0002:00002520       ??_C@_0EA@FCLIIPNN@Visual?5C?$CL?$CL?5CRT?3?5Not?5enough?5memor@ 10017520     LIBCMT:strerror.obj
 0002:00002560       __pDestructExceptionObject 10017560     LIBCMT:frame.obj
 0002:00002564       ??_C@_0BG@KLEAJEFJ@Illegal?5byte?5sequence?$AA@ 10017564     LIBCMT:syserr.obj
 0002:0000257c       ??_C@_0BE@ICMCHPHH@Directory?5not?5empty?$AA@ 1001757c     LIBCMT:syserr.obj
 0002:00002590       ??_C@_0BJ@IHEHINLI@Function?5not?5implemented?$AA@ 10017590     LIBCMT:syserr.obj
 0002:000025ac       ??_C@_0BD@CLHBCGPB@No?5locks?5available?$AA@ 100175ac     LIBCMT:syserr.obj
 0002:000025c0       ??_C@_0BC@BEDIHIDK@Filename?5too?5long?$AA@ 100175c0     LIBCMT:syserr.obj
 0002:000025d4       ??_C@_0BK@JAEBMJJM@Resource?5deadlock?5avoided?$AA@ 100175d4     LIBCMT:syserr.obj
 0002:000025f0       ??_C@_0BB@FCBJFCAJ@Result?5too?5large?$AA@ 100175f0     LIBCMT:syserr.obj
 0002:00002604       ??_C@_0N@MMJPGLJK@Domain?5error?$AA@ 10017604     LIBCMT:syserr.obj
 0002:00002614       ??_C@_0M@LHEPIIOM@Broken?5pipe?$AA@ 10017614     LIBCMT:syserr.obj
 0002:00002620       ??_C@_0P@PKCJJLLM@Too?5many?5links?$AA@ 10017620     LIBCMT:syserr.obj
 0002:00002630       ??_C@_0BG@DDBFNKBH@Read?9only?5file?5system?$AA@ 10017630     LIBCMT:syserr.obj
 0002:00002648       ??_C@_0N@FEHLOILP@Invalid?5seek?$AA@ 10017648     LIBCMT:syserr.obj
 0002:00002658       ??_C@_0BI@FEALHKLD@No?5space?5left?5on?5device?$AA@ 10017658     LIBCMT:syserr.obj
 0002:00002670       ??_C@_0P@LFMMIPAE@File?5too?5large?$AA@ 10017670     LIBCMT:syserr.obj
 0002:00002680       ??_C@_0CE@ONOKNLPF@Inappropriate?5I?1O?5control?5operat@ 10017680     LIBCMT:syserr.obj
 0002:000026a4       ??_C@_0BE@INBJMKGG@Too?5many?5open?5files?$AA@ 100176a4     LIBCMT:syserr.obj
 0002:000026b8       ??_C@_0BO@IIFBODJE@Too?5many?5open?5files?5in?5system?$AA@ 100176b8     LIBCMT:syserr.obj
 0002:000026d8       ??_C@_0BB@HMGGCEBG@Invalid?5argument?$AA@ 100176d8     LIBCMT:syserr.obj
 0002:000026ec       ??_C@_0P@NDHGCGKE@Is?5a?5directory?$AA@ 100176ec     LIBCMT:syserr.obj
 0002:000026fc       ??_C@_0BA@CJBACOOL@Not?5a?5directory?$AA@ 100176fc     LIBCMT:syserr.obj
 0002:0000270c       ??_C@_0P@NLEIANHE@No?5such?5device?$AA@ 1001770c     LIBCMT:syserr.obj
 0002:0000271c       ??_C@_0O@OAMDNOCP@Improper?5link?$AA@ 1001771c     LIBCMT:syserr.obj
 0002:0000272c       ??_C@_0M@NAAJNNGH@File?5exists?$AA@ 1001772c     LIBCMT:syserr.obj
 0002:00002738       ??_C@_0BA@BIBLIOEK@Resource?5device?$AA@ 10017738     LIBCMT:syserr.obj
 0002:00002748       ??_C@_0M@LOEHLCJD@Bad?5address?$AA@ 10017748     LIBCMT:syserr.obj
 0002:00002754       ??_C@_0BC@HFNFNKAI@Permission?5denied?$AA@ 10017754     LIBCMT:syserr.obj
 0002:00002768       ??_C@_0BB@IMDKMPFB@Not?5enough?5space?$AA@ 10017768     LIBCMT:syserr.obj
 0002:0000277c       ??_C@_0CB@EPFKGNAK@Resource?5temporarily?5unavailable@ 1001777c     LIBCMT:syserr.obj
 0002:000027a0       ??_C@_0BD@LOHELEP@No?5child?5processes?$AA@ 100177a0     LIBCMT:syserr.obj
 0002:000027b4       ??_C@_0BE@NFGDDCEF@Bad?5file?5descriptor?$AA@ 100177b4     LIBCMT:syserr.obj
 0002:000027c8       ??_C@_0BC@HKPNECK@Exec?5format?5error?$AA@ 100177c8     LIBCMT:syserr.obj
 0002:000027dc       ??_C@_0BC@MFFGCDFL@Arg?5list?5too?5long?$AA@ 100177dc     LIBCMT:syserr.obj
 0002:000027f0       ??_C@_0BK@DPKMCKJ@No?5such?5device?5or?5address?$AA@ 100177f0     LIBCMT:syserr.obj
 0002:0000280c       ??_C@_0BD@KKNFOBBD@Input?1output?5error?$AA@ 1001780c     LIBCMT:syserr.obj
 0002:00002820       ??_C@_0BK@FJBOAFDK@Interrupted?5function?5call?$AA@ 10017820     LIBCMT:syserr.obj
 0002:0000283c       ??_C@_0BA@FKIAIBGA@No?5such?5process?$AA@ 1001783c     LIBCMT:syserr.obj
 0002:0000284c       ??_C@_0BK@FMDHKPNF@No?5such?5file?5or?5directory?$AA@ 1001784c     LIBCMT:syserr.obj
 0002:00002868       ??_C@_0BI@BJFCGOHL@Operation?5not?5permitted?$AA@ 10017868     LIBCMT:syserr.obj
 0002:00002880       ??_C@_08INEPGKHH@No?5error?$AA@ 10017880     LIBCMT:syserr.obj
 0002:0000288c       ??_C@_04DAMGJPCA@file?$AA@ 1001788c     ILuaInterface.obj
 0002:00002894       ??_C@_05BPFJLLEL@video?$AA@ 10017894     ILuaInterface.obj
 0002:0000289c       ??_C@_06FNBIHLLK@dlight?$AA@ 1001789c     ILuaInterface.obj
 0002:000028a4       ??_C@_0P@JPILGICD@pixelvishandle?$AA@ 100178a4     ILuaInterface.obj
 0002:000028b4       ??_C@_05MHNANJII@sound?$AA@ 100178b4     ILuaInterface.obj
 0002:000028bc       ??_C@_06CGNOPMBC@matrix?$AA@ 100178bc     ILuaInterface.obj
 0002:000028c4       ??_C@_04KPBEILIJ@mesh?$AA@ 100178c4     ILuaInterface.obj
 0002:000028cc       ??_C@_06BNCFEHHJ@convar?$AA@ 100178cc     ILuaInterface.obj
 0002:000028d4       ??_C@_07MNIBFMCF@usermsg?$AA@ 100178d4     ILuaInterface.obj
 0002:000028dc       ??_C@_07JDHEGGGP@texture?$AA@ 100178dc     ILuaInterface.obj
 0002:000028e4       ??_C@_0BA@BMCMAOE@particleemitter?$AA@ 100178e4     ILuaInterface.obj
 0002:000028f4       ??_C@_08PKKGOGAD@particle?$AA@ 100178f4     ILuaInterface.obj
 0002:00002900       ??_C@_05LNOAKADA@panel?$AA@ 10017900     ILuaInterface.obj
 0002:00002908       ??_C@_08KNOEMJMM@material?$AA@ 10017908     ILuaInterface.obj
 0002:00002914       ??_C@_07CJDNLGID@vehicle?$AA@ 10017914     ILuaInterface.obj
 0002:0000291c       ??_C@_07BAMLPGKP@usercmd?$AA@ 1001791c     ILuaInterface.obj
 0002:00002924       ??_C@_0BA@OLFABIKI@recipientfilter?$AA@ 10017924     ILuaInterface.obj
 0002:00002934       ??_C@_08KKKGJPMM@movedata?$AA@ 10017934     ILuaInterface.obj
 0002:00002940       ??_C@_0L@DEKLJEIB@effectdata?$AA@ 10017940     ILuaInterface.obj
 0002:0000294c       ??_C@_0L@MPBLLEF@damageinfo?$AA@ 1001794c     ILuaInterface.obj
 0002:00002958       ??_C@_07HICINA@restore?$AA@ 10017958     ILuaInterface.obj
 0002:00002960       ??_C@_04EMMDIJJL@save?$AA@ 10017960     ILuaInterface.obj
 0002:00002968       ??_C@_07KLIPAOKE@physobj?$AA@ 10017968     ILuaInterface.obj
 0002:00002970       ??_C@_05FECBCJJD@angle?$AA@ 10017970     ILuaInterface.obj
 0002:00002978       ??_C@_06NBFPPGEG@vector?$AA@ 10017978     ILuaInterface.obj
 0002:00002980       ??_C@_06GOJKNBFM@entity?$AA@ 10017980     ILuaInterface.obj
 0002:00002988       ??_C@_06FJHNOCKE@thread?$AA@ 10017988     ILuaInterface.obj
 0002:00002990       ??_C@_08NOEPOPLB@userdata?$AA@ 10017990     ILuaInterface.obj
 0002:0000299c       ??_C@_08HFFPPCHF@function?$AA@ 1001799c     ILuaInterface.obj
 0002:000029a8       ??_C@_05LCLENNFI@table?$AA@ 100179a8     ILuaInterface.obj
 0002:000029b0       ??_C@_06ICGJLFIM@string?$AA@ 100179b0     ILuaInterface.obj
 0002:000029b8       ??_C@_06EBGNBFIA@number?$AA@ 100179b8     ILuaInterface.obj
 0002:000029c0       ??_C@_0O@IPMMJLHC@lightuserdata?$AA@ 100179c0     ILuaInterface.obj
 0002:000029d0       ??_C@_04DDKJGDCM@bool?$AA@ 100179d0     ILuaInterface.obj
 0002:000029d8       ??_C@_03ILAMHENH@nil?$AA@  100179d8     ILuaInterface.obj
 0002:000029dc       ??_C@_0M@BJKGCBIM@ErrorNoHalt?$AA@ 100179dc     ILuaInterface.obj
 0002:000029e8       ??_C@_0BM@PAPJHAGI@invalid?5map?1set?$DMT?$DO?5iterator?$AA@ 100179e8     ILuaModuleManager.obj
 0002:00002a04       ??_C@_0BE@JONHPENG@map?1set?$DMT?$DO?5too?5long?$AA@ 10017a04     ILuaModuleManager.obj
 0002:00002a18       ??_C@_0CM@HOFCBLHN@ILuaObject?3?3GetMembers?0?5object?5n@ 10017a18     ILuaObject.obj
 0002:00002a44       ??_C@_0P@GHFPNOJB@bad?5allocation?$AA@ 10017a44     nav.obj
 0002:00002a5c       ??_C@_0M@BLHIOHBE@Invalid?5Nav?$AA@ 10017a5c     nav.obj
 0002:00002a68       ??_C@_03JFAAHAIK@Nav?$AA@  10017a68     nav.obj
 0002:00002a6c       ??_C@_0BJ@DFNNMMPE@Failed?5to?5remove?5Node?$CB?$DP?6?$AA@ 10017a6c     nav.obj
 0002:00002a88       ??_C@_0BI@CFPLBAOH@invalid?5string?5position?$AA@ 10017a88     nav.obj
 0002:00002aa0       ??_C@_0BA@JFNIOLAK@string?5too?5long?$AA@ 10017aa0     nav.obj
 0002:00002ab0       ??_C@_06BOOCMPNK@Vector?$AA@ 10017ab0     main.obj
 0002:00002ab8       ??_C@_0CK@JBFOFHFL@Sass?3FloodNav?5pair?5value?5is?5not?5@ 10017ab8     main.obj
 0002:00002ae8       ??_C@_0EG@MMLICODI@Sass?3FloodNav?5table?5values?5incor@ 10017ae8     main.obj
 0002:00002b30       ??_C@_08ODMLJMLJ@empireID?$AA@ 10017b30     main.obj
 0002:00002b3c       ??_C@_07NHABFFHN@__index?$AA@ 10017b3c     main.obj
 0002:00002b44       ??_C@_0P@CPKAGAEE@FloodTerritory?$AA@ 10017b44     main.obj
 0002:00002b54       ??_C@_0N@BEJCCAJI@GetTerritory?$AA@ 10017b54     main.obj
 0002:00002b64       ??_C@_0BM@DCJNIOND@gmsv_sassilization?3?5Loaded?6?$AA@ 10017b64     main.obj
 0002:00002b80       __real@0000000000000000    10017b80      CIL library: CIL module
 0002:00002b88       __real@bff0000000000000    10017b88      CIL library: CIL module
 0002:00002b90       __real@4000000000000000    10017b90      CIL library: CIL module
 0002:00002b98       __real@4008000000000000    10017b98      CIL library: CIL module
 0002:00002ba0       __real@43070000            10017ba0      CIL library: CIL module
 0002:00002bb0       __indefinite               10017bb0     LIBCMT:_87disp_.obj
 0002:00002bba       __piby2                    10017bba     LIBCMT:_87disp_.obj
 0002:00002be8       __DEFAULT_CW_in_mem        10017be8     LIBCMT:_common_.obj
 0002:00002bea       __pi_by_2_to_61            10017bea     LIBCMT:_common_.obj
 0002:00002c24       ??_C@_0L@KDOEJCKC@_nextafter?$AA@ 10017c24     LIBCMT:_fpexcept_.obj
 0002:00002c30       ??_C@_05JGDBENOH@_logb?$AA@ 10017c30     LIBCMT:_fpexcept_.obj
 0002:00002c38       ??_C@_03ONILCKOB@_yn?$AA@  10017c38     LIBCMT:_fpexcept_.obj
 0002:00002c3c       ??_C@_03NAKIGLHK@_y1?$AA@  10017c3c     LIBCMT:_fpexcept_.obj
 0002:00002c40       ??_C@_03MJLDFKDL@_y0?$AA@  10017c40     LIBCMT:_fpexcept_.obj
 0002:00002c44       ??_C@_05GKKHEGJL@frexp?$AA@ 10017c44     LIBCMT:_fpexcept_.obj
 0002:00002c4c       ??_C@_04KEPJIHGP@fmod?$AA@ 10017c4c     LIBCMT:_fpexcept_.obj
 0002:00002c54       ??_C@_06MEIMCGCF@_hypot?$AA@ 10017c54     LIBCMT:_fpexcept_.obj
 0002:00002c5c       ??_C@_05KBKMEMPO@_cabs?$AA@ 10017c5c     LIBCMT:_fpexcept_.obj
 0002:00002c64       ??_C@_05CEJMAHNP@ldexp?$AA@ 10017c64     LIBCMT:_fpexcept_.obj
 0002:00002c6c       ??_C@_04EHEDPDJG@modf?$AA@ 10017c6c     LIBCMT:_fpexcept_.obj
 0002:00002c74       ??_C@_04ODHECPBC@fabs?$AA@ 10017c74     LIBCMT:_fpexcept_.obj
 0002:00002c7c       ??_C@_05PBJFFIGL@floor?$AA@ 10017c7c     LIBCMT:_fpexcept_.obj
 0002:00002c84       ??_C@_04GFPJNGEK@ceil?$AA@ 10017c84     LIBCMT:_fpexcept_.obj
 0002:00002c8c       ??_C@_03IIINPABG@tan?$AA@  10017c8c     LIBCMT:_fpexcept_.obj
 0002:00002c90       ??_C@_03LALBNOCG@cos?$AA@  10017c90     LIBCMT:_fpexcept_.obj
 0002:00002c94       ??_C@_03BLEJJJBH@sin?$AA@  10017c94     LIBCMT:_fpexcept_.obj
 0002:00002c98       ??_C@_04EIAKFFMI@sqrt?$AA@ 10017c98     LIBCMT:_fpexcept_.obj
 0002:00002ca0       ??_C@_05KNGEOGJB@atan2?$AA@ 10017ca0     LIBCMT:_fpexcept_.obj
 0002:00002ca8       ??_C@_04MLLJIGOK@atan?$AA@ 10017ca8     LIBCMT:_fpexcept_.obj
 0002:00002cb0       ??_C@_04PDIFKINK@acos?$AA@ 10017cb0     LIBCMT:_fpexcept_.obj
 0002:00002cb8       ??_C@_04FIHNOPOL@asin?$AA@ 10017cb8     LIBCMT:_fpexcept_.obj
 0002:00002cc0       ??_C@_04FJHINJAO@tanh?$AA@ 10017cc0     LIBCMT:_fpexcept_.obj
 0002:00002cc8       ??_C@_04HPJJNFIM@cosh?$AA@ 10017cc8     LIBCMT:_fpexcept_.obj
 0002:00002cd0       ??_C@_04COOMCNPB@sinh?$AA@ 10017cd0     LIBCMT:_fpexcept_.obj
 0002:00002cd8       ??_C@_05HGHHAHAP@log10?$AA@ 10017cd8     LIBCMT:_fpexcept_.obj
 0002:00002ce0       ??_C@_03MGHMBJCF@log?$AA@  10017ce0     LIBCMT:_fpexcept_.obj
 0002:00002ce4       ??_C@_03JGHBODFD@pow?$AA@  10017ce4     LIBCMT:_fpexcept_.obj
 0002:00002ce8       ??_C@_03KHJOGHMM@exp?$AA@  10017ce8     LIBCMT:_fpexcept_.obj
 0002:00002cf0       __load_config_used         10017cf0     LIBCMT:loadcfg.obj
 0002:00002d38       __tls_used                 10017d38     LIBCMT:tlssup.obj
 0002:00002db8       ??_R4logic_error@std@@6B@  10017db8     libcpmt:xthrow.obj
 0002:00002dcc       ??_R3logic_error@std@@8    10017dcc     libcpmt:xthrow.obj
 0002:00002ddc       ??_R2logic_error@std@@8    10017ddc     libcpmt:xthrow.obj
 0002:00002de8       ??_R1A@?0A@EA@logic_error@std@@8 10017de8     libcpmt:xthrow.obj
 0002:00002e04       ??_R4length_error@std@@6B@ 10017e04     libcpmt:xthrow.obj
 0002:00002e18       ??_R3length_error@std@@8   10017e18     libcpmt:xthrow.obj
 0002:00002e28       ??_R2length_error@std@@8   10017e28     libcpmt:xthrow.obj
 0002:00002e38       ??_R1A@?0A@EA@length_error@std@@8 10017e38     libcpmt:xthrow.obj
 0002:00002e54       ??_R4out_of_range@std@@6B@ 10017e54     libcpmt:xthrow.obj
 0002:00002e68       ??_R3out_of_range@std@@8   10017e68     libcpmt:xthrow.obj
 0002:00002e78       ??_R2out_of_range@std@@8   10017e78     libcpmt:xthrow.obj
 0002:00002e88       ??_R1A@?0A@EA@out_of_range@std@@8 10017e88     libcpmt:xthrow.obj
 0002:00002ea4       ??_R4exception@std@@6B@    10017ea4     LIBCMT:stdexcpt.obj
 0002:00002eb8       ??_R4type_info@@6B@        10017eb8     LIBCMT:typinfo.obj
 0002:00002ecc       ??_R3type_info@@8          10017ecc     LIBCMT:typinfo.obj
 0002:00002edc       ??_R2type_info@@8          10017edc     LIBCMT:typinfo.obj
 0002:00002ee4       ??_R1A@?0A@EA@type_info@@8 10017ee4     LIBCMT:typinfo.obj
 0002:00002f00       ??_R4bad_exception@std@@6B@ 10017f00     libboost_thread-vc100-mt-s-1_55:thread.obj
 0002:00002f14       ??_R3bad_exception@std@@8  10017f14     libboost_thread-vc100-mt-s-1_55:thread.obj
 0002:00002f24       ??_R2bad_exception@std@@8  10017f24     libboost_thread-vc100-mt-s-1_55:thread.obj
 0002:00002f30       ??_R1A@?0A@EA@bad_exception@std@@8 10017f30     libboost_thread-vc100-mt-s-1_55:thread.obj
 0002:00002f4c       ??_R4sp_counted_base@detail@boost@@6B@ 10017f4c     libboost_thread-vc100-mt-s-1_55:thread.obj
 0002:00002f60       ??_R3sp_counted_base@detail@boost@@8 10017f60     libboost_thread-vc100-mt-s-1_55:thread.obj
 0002:00002f70       ??_R2sp_counted_base@detail@boost@@8 10017f70     libboost_thread-vc100-mt-s-1_55:thread.obj
 0002:00002f78       ??_R1A@?0A@EA@sp_counted_base@detail@boost@@8 10017f78     libboost_thread-vc100-mt-s-1_55:thread.obj
 0002:00002f94       ??_R4?$sp_counted_impl_p@V?$clone_impl@Ubad_alloc_@exception_detail@boost@@@exception_detail@boost@@@detail@boost@@6B@ 10017f94     libboost_thread-vc100-mt-s-1_55:thread.obj
 0002:00002fa8       ??_R3?$sp_counted_impl_p@V?$clone_impl@Ubad_alloc_@exception_detail@boost@@@exception_detail@boost@@@detail@boost@@8 10017fa8     libboost_thread-vc100-mt-s-1_55:thread.obj
 0002:00002fb8       ??_R2?$sp_counted_impl_p@V?$clone_impl@Ubad_alloc_@exception_detail@boost@@@exception_detail@boost@@@detail@boost@@8 10017fb8     libboost_thread-vc100-mt-s-1_55:thread.obj
 0002:00002fc4       ??_R1A@?0A@EA@?$sp_counted_impl_p@V?$clone_impl@Ubad_alloc_@exception_detail@boost@@@exception_detail@boost@@@detail@boost@@8 10017fc4     libboost_thread-vc100-mt-s-1_55:thread.obj
 0002:00002fe0       ??_R4?$sp_counted_impl_p@V?$clone_impl@Ubad_exception_@exception_detail@boost@@@exception_detail@boost@@@detail@boost@@6B@ 10017fe0     libboost_thread-vc100-mt-s-1_55:thread.obj
 0002:00002ff4       ??_R3?$sp_counted_impl_p@V?$clone_impl@Ubad_exception_@exception_detail@boost@@@exception_detail@boost@@@detail@boost@@8 10017ff4     libboost_thread-vc100-mt-s-1_55:thread.obj
 0002:00003004       ??_R2?$sp_counted_impl_p@V?$clone_impl@Ubad_exception_@exception_detail@boost@@@exception_detail@boost@@@detail@boost@@8 10018004     libboost_thread-vc100-mt-s-1_55:thread.obj
 0002:00003010       ??_R1A@?0A@EA@?$sp_counted_impl_p@V?$clone_impl@Ubad_exception_@exception_detail@boost@@@exception_detail@boost@@@detail@boost@@8 10018010     libboost_thread-vc100-mt-s-1_55:thread.obj
 0002:0000302c       ??_R4bad_alloc_@exception_detail@boost@@6Bexception@2@@ 1001802c     libboost_thread-vc100-mt-s-1_55:thread.obj
 0002:00003040       ??_R3bad_alloc_@exception_detail@boost@@8 10018040     libboost_thread-vc100-mt-s-1_55:thread.obj
 0002:00003050       ??_R2bad_alloc_@exception_detail@boost@@8 10018050     libboost_thread-vc100-mt-s-1_55:thread.obj
 0002:00003064       ??_R1A@?0A@EA@bad_alloc_@exception_detail@boost@@8 10018064     libboost_thread-vc100-mt-s-1_55:thread.obj
 0002:00003080       ??_R1BE@?0A@EA@bad_alloc@std@@8 10018080     libboost_thread-vc100-mt-s-1_55:thread.obj
 0002:0000309c       ??_R1BE@?0A@EA@exception@std@@8 1001809c     libboost_thread-vc100-mt-s-1_55:thread.obj
 0002:000030b8       ??_R4bad_alloc_@exception_detail@boost@@6Bbad_alloc@std@@@ 100180b8     libboost_thread-vc100-mt-s-1_55:thread.obj
 0002:000030cc       ??_R4bad_exception_@exception_detail@boost@@6Bexception@2@@ 100180cc     libboost_thread-vc100-mt-s-1_55:thread.obj
 0002:000030e0       ??_R3bad_exception_@exception_detail@boost@@8 100180e0     libboost_thread-vc100-mt-s-1_55:thread.obj
 0002:000030f0       ??_R2bad_exception_@exception_detail@boost@@8 100180f0     libboost_thread-vc100-mt-s-1_55:thread.obj
 0002:00003104       ??_R1A@?0A@EA@bad_exception_@exception_detail@boost@@8 10018104     libboost_thread-vc100-mt-s-1_55:thread.obj
 0002:00003120       ??_R1BE@?0A@EA@bad_exception@std@@8 10018120     libboost_thread-vc100-mt-s-1_55:thread.obj
 0002:0000313c       ??_R4bad_exception_@exception_detail@boost@@6Bbad_exception@std@@@ 1001813c     libboost_thread-vc100-mt-s-1_55:thread.obj
 0002:00003150       ??_R4?$clone_impl@Ubad_alloc_@exception_detail@boost@@@exception_detail@boost@@6Bexception@2@@ 10018150     libboost_thread-vc100-mt-s-1_55:thread.obj
 0002:00003164       ??_R3?$clone_impl@Ubad_alloc_@exception_detail@boost@@@exception_detail@boost@@8 10018164     libboost_thread-vc100-mt-s-1_55:thread.obj
 0002:00003174       ??_R2?$clone_impl@Ubad_alloc_@exception_detail@boost@@@exception_detail@boost@@8 10018174     libboost_thread-vc100-mt-s-1_55:thread.obj
 0002:00003190       ??_R1A@?0A@EA@?$clone_impl@Ubad_alloc_@exception_detail@boost@@@exception_detail@boost@@8 10018190     libboost_thread-vc100-mt-s-1_55:thread.obj
 0002:000031ac       ??_R4?$clone_impl@Ubad_alloc_@exception_detail@boost@@@exception_detail@boost@@6Bbad_alloc@std@@@ 100181ac     libboost_thread-vc100-mt-s-1_55:thread.obj
 0002:000031c0       ??_R4?$clone_impl@Ubad_alloc_@exception_detail@boost@@@exception_detail@boost@@6B@ 100181c0     libboost_thread-vc100-mt-s-1_55:thread.obj
 0002:000031d4       ??_R4?$clone_impl@Ubad_exception_@exception_detail@boost@@@exception_detail@boost@@6Bexception@2@@ 100181d4     libboost_thread-vc100-mt-s-1_55:thread.obj
 0002:000031e8       ??_R3?$clone_impl@Ubad_exception_@exception_detail@boost@@@exception_detail@boost@@8 100181e8     libboost_thread-vc100-mt-s-1_55:thread.obj
 0002:000031f8       ??_R2?$clone_impl@Ubad_exception_@exception_detail@boost@@@exception_detail@boost@@8 100181f8     libboost_thread-vc100-mt-s-1_55:thread.obj
 0002:00003214       ??_R1A@?0A@EA@?$clone_impl@Ubad_exception_@exception_detail@boost@@@exception_detail@boost@@8 10018214     libboost_thread-vc100-mt-s-1_55:thread.obj
 0002:00003230       ??_R4?$clone_impl@Ubad_exception_@exception_detail@boost@@@exception_detail@boost@@6Bbad_exception@std@@@ 10018230     libboost_thread-vc100-mt-s-1_55:thread.obj
 0002:00003244       ??_R4?$clone_impl@Ubad_exception_@exception_detail@boost@@@exception_detail@boost@@6B@ 10018244     libboost_thread-vc100-mt-s-1_55:thread.obj
 0002:00003258       ??_R4error_category@system@boost@@6B@ 10018258     libboost_system-vc100-mt-s-1_55:error_code.obj
 0002:0000326c       ??_R3error_category@system@boost@@8 1001826c     libboost_system-vc100-mt-s-1_55:error_code.obj
 0002:0000327c       ??_R2error_category@system@boost@@8 1001827c     libboost_system-vc100-mt-s-1_55:error_code.obj
 0002:00003288       ??_R1A@?0A@EA@error_category@system@boost@@8 10018288     libboost_system-vc100-mt-s-1_55:error_code.obj
 0002:000032a4       ??_R13?0A@EA@noncopyable@noncopyable_@boost@@8 100182a4     libboost_system-vc100-mt-s-1_55:error_code.obj
 0002:000032c0       ??_R3noncopyable@noncopyable_@boost@@8 100182c0     libboost_system-vc100-mt-s-1_55:error_code.obj
 0002:000032d0       ??_R2noncopyable@noncopyable_@boost@@8 100182d0     libboost_system-vc100-mt-s-1_55:error_code.obj
 0002:000032d8       ??_R1A@?0A@EA@noncopyable@noncopyable_@boost@@8 100182d8     libboost_system-vc100-mt-s-1_55:error_code.obj
 0002:000032f4       ??_R4system_error_category@?A0x2ad791f3@system@boost@@6B@ 100182f4     libboost_system-vc100-mt-s-1_55:error_code.obj
 0002:00003308       ??_R3system_error_category@?A0x2ad791f3@system@boost@@8 10018308     libboost_system-vc100-mt-s-1_55:error_code.obj
 0002:00003318       ??_R2system_error_category@?A0x2ad791f3@system@boost@@8 10018318     libboost_system-vc100-mt-s-1_55:error_code.obj
 0002:00003328       ??_R1A@?0A@EA@system_error_category@?A0x2ad791f3@system@boost@@8 10018328     libboost_system-vc100-mt-s-1_55:error_code.obj
 0002:00003344       ??_R4generic_error_category@?A0x2ad791f3@system@boost@@6B@ 10018344     libboost_system-vc100-mt-s-1_55:error_code.obj
 0002:00003358       ??_R3generic_error_category@?A0x2ad791f3@system@boost@@8 10018358     libboost_system-vc100-mt-s-1_55:error_code.obj
 0002:00003368       ??_R2generic_error_category@?A0x2ad791f3@system@boost@@8 10018368     libboost_system-vc100-mt-s-1_55:error_code.obj
 0002:00003378       ??_R1A@?0A@EA@generic_error_category@?A0x2ad791f3@system@boost@@8 10018378     libboost_system-vc100-mt-s-1_55:error_code.obj
 0002:00003394       ??_R4bad_alloc@std@@6B@    10018394     ILuaModuleManager.obj
 0002:000033a8       ??_R3bad_alloc@std@@8      100183a8     ILuaModuleManager.obj
 0002:000033b8       ??_R2bad_alloc@std@@8      100183b8     ILuaModuleManager.obj
 0002:000033c4       ??_R1A@?0A@EA@exception@std@@8 100183c4     ILuaModuleManager.obj
 0002:000033e0       ??_R3exception@std@@8      100183e0     ILuaModuleManager.obj
 0002:000033f0       ??_R2exception@std@@8      100183f0     ILuaModuleManager.obj
 0002:000033f8       ??_R1A@?0A@EA@bad_alloc@std@@8 100183f8     ILuaModuleManager.obj
 0002:00003414       ??_R1A@CA@3FA@clone_base@exception_detail@boost@@8 10018414     nav.obj
 0002:00003430       ??_R4clone_base@exception_detail@boost@@6B@ 10018430     nav.obj
 0002:00003444       ??_R3clone_base@exception_detail@boost@@8 10018444     nav.obj
 0002:00003454       ??_R2clone_base@exception_detail@boost@@8 10018454     nav.obj
 0002:0000345c       ??_R1A@?0A@EA@clone_base@exception_detail@boost@@8 1001845c     nav.obj
 0002:00003478       ??_R4exception@boost@@6B@  10018478     nav.obj
 0002:0000348c       ??_R3exception@boost@@8    1001848c     nav.obj
 0002:0000349c       ??_R2exception@boost@@8    1001849c     nav.obj
 0002:000034a4       ??_R1A@?0A@EA@exception@boost@@8 100184a4     nav.obj
 0002:000034c0       ___safe_se_handler_table   100184c0     <linker-defined>
 0002:00003540       ___rtc_iaa                 10018540     LIBCMT:_initsect_.obj
 0002:00003544       ___rtc_izz                 10018544     LIBCMT:_initsect_.obj
 0002:00003548       ___rtc_taa                 10018548     LIBCMT:_initsect_.obj
 0002:0000354c       ___rtc_tzz                 1001854c     LIBCMT:_initsect_.obj
 0002:00003550       __CT??_R0?AVlogic_error@std@@@8??0logic_error@std@@QAE@ABV01@@Z12 10018550     libcpmt:xthrow.obj
 0002:0000356c       __TI3?AVlength_error@std@@ 1001856c     libcpmt:xthrow.obj
 0002:0000357c       __CTA3?AVlength_error@std@@ 1001857c     libcpmt:xthrow.obj
 0002:0000358c       __CT??_R0?AVlength_error@std@@@8??0length_error@std@@QAE@ABV01@@Z12 1001858c     libcpmt:xthrow.obj
 0002:000035a8       __TI3?AVout_of_range@std@@ 100185a8     libcpmt:xthrow.obj
 0002:000035b8       __CTA3?AVout_of_range@std@@ 100185b8     libcpmt:xthrow.obj
 0002:000035c8       __CT??_R0?AVout_of_range@std@@@8??0out_of_range@std@@QAE@ABV01@@Z12 100185c8     libcpmt:xthrow.obj
 0002:00003a64       __TI6?AV?$clone_impl@Ubad_alloc_@exception_detail@boost@@@exception_detail@boost@@ 10018a64     libboost_thread-vc100-mt-s-1_55:thread.obj
 0002:00003a74       __CTA6?AV?$clone_impl@Ubad_alloc_@exception_detail@boost@@@exception_detail@boost@@ 10018a74     libboost_thread-vc100-mt-s-1_55:thread.obj
 0002:00003a90       __CT??_R0?AV?$clone_impl@Ubad_alloc_@exception_detail@boost@@@exception_detail@boost@@@8??0?$clone_impl@Ubad_alloc_@exception_detail@boost@@@exception_detail@boost@@QAE@ABV012@@Z44 10018a90     libboost_thread-vc100-mt-s-1_55:thread.obj
 0002:00003aac       __CT??_R0?AUbad_alloc_@exception_detail@boost@@@8??0bad_alloc_@exception_detail@boost@@QAE@ABU012@@Z32 10018aac     libboost_thread-vc100-mt-s-1_55:thread.obj
 0002:00003ac8       __CT??_R0?AVexception@boost@@@8??0exception@boost@@QAE@ABV01@@Z20 10018ac8     libboost_thread-vc100-mt-s-1_55:thread.obj
 0002:00003ae4       __CT??_R0?AVbad_alloc@std@@@8??0bad_alloc@std@@QAE@ABV01@@Z1220 10018ae4     libboost_thread-vc100-mt-s-1_55:thread.obj
 0002:00003b00       __CT??_R0?AVexception@std@@@8??0exception@std@@QAE@ABV01@@Z1220 10018b00     libboost_thread-vc100-mt-s-1_55:thread.obj
 0002:00003b1c       __TI6?AV?$clone_impl@Ubad_exception_@exception_detail@boost@@@exception_detail@boost@@ 10018b1c     libboost_thread-vc100-mt-s-1_55:thread.obj
 0002:00003b60       __CTA6?AV?$clone_impl@Ubad_exception_@exception_detail@boost@@@exception_detail@boost@@ 10018b60     libboost_thread-vc100-mt-s-1_55:thread.obj
 0002:00003b7c       __CT??_R0?AV?$clone_impl@Ubad_exception_@exception_detail@boost@@@exception_detail@boost@@@8??0?$clone_impl@Ubad_exception_@exception_detail@boost@@@exception_detail@boost@@QAE@ABV012@@Z44 10018b7c     libboost_thread-vc100-mt-s-1_55:thread.obj
 0002:00003b98       __CT??_R0?AUbad_exception_@exception_detail@boost@@@8??0bad_exception_@exception_detail@boost@@QAE@ABU012@@Z32 10018b98     libboost_thread-vc100-mt-s-1_55:thread.obj
 0002:00003bb4       __CT??_R0?AVbad_exception@std@@@8??0bad_exception@std@@QAE@ABV01@@Z1220 10018bb4     libboost_thread-vc100-mt-s-1_55:thread.obj
 0002:00003f5c       __TI2?AVbad_exception@std@@ 10018f5c     LIBCMT:frame.obj
 0002:00003f6c       __CTA2?AVbad_exception@std@@ 10018f6c     LIBCMT:frame.obj
 0002:00003f78       __CT??_R0?AVbad_exception@std@@@8??0bad_exception@std@@QAE@ABV01@@Z12 10018f78     LIBCMT:frame.obj
 0002:00003f94       __CT??_R0?AVbad_alloc@std@@@8??0bad_alloc@std@@QAE@ABV01@@Z12 10018f94     ILuaModuleManager.obj
 0002:00003fb0       __CT??_R0?AVexception@std@@@8??0exception@std@@QAE@ABV01@@Z12 10018fb0     ILuaModuleManager.obj
 0002:00003fcc       __CTA2?AVbad_alloc@std@@   10018fcc     ILuaModuleManager.obj
 0002:00003fd8       __TI2?AVbad_alloc@std@@    10018fd8     ILuaModuleManager.obj
 0002:00003fe8       __CT??_R0?AVclone_base@exception_detail@boost@@@8??0clone_base@exception_detail@boost@@QAE@ABV012@@Z40324 10018fe8     nav.obj
 0002:0000424c       __IMPORT_DESCRIPTOR_tier0  1001924c     tier0:tier0.dll
 0002:00004260       __IMPORT_DESCRIPTOR_KERNEL32 10019260     kernel32:KERNEL32.dll
 0002:00004274       __NULL_IMPORT_DESCRIPTOR   10019274     tier0:tier0.dll
 0003:00000014       ??_R0?AVlogic_error@std@@@8 1001a014     libcpmt:xthrow.obj
 0003:00000034       ??_R0?AVlength_error@std@@@8 1001a034     libcpmt:xthrow.obj
 0003:00000054       ??_R0?AVout_of_range@std@@@8 1001a054     libcpmt:xthrow.obj
 0003:00000080       ??_R0?AVtype_info@@@8      1001a080     LIBCMT:typinfo.obj
 0003:000000a0       __fltused                  1001a0a0     LIBCMT:_fpinit_.obj
 0003:000000a4       __ldused                   1001a0a4     LIBCMT:_fpinit_.obj
 0003:000000b0       ___security_cookie         1001a0b0     LIBCMT:gs_cookie.obj
 0003:000000b4       ___security_cookie_complement 1001a0b4     LIBCMT:gs_cookie.obj
 0003:00000230       ___nullstring              1001a230     LIBCMT:output.obj
 0003:00000234       ___wnullstring             1001a234     LIBCMT:output.obj
 0003:00000240       __iob                      1001a240     LIBCMT:_file.obj
 0003:000004c0       ___badioinfo               1001a4c0     LIBCMT:ioinit.obj
 0003:00000500       ___abort_behavior          1001a500     LIBCMT:abort.obj
 0003:00000504       ___flsindex                1001a504     LIBCMT:tidtable.obj
 0003:00000508       ___getvalueindex           1001a508     LIBCMT:tidtable.obj
 0003:0000050c       __cfltcvt_tab              1001a50c     LIBCMT:cmiscdat.obj
 0003:00000538       ___initialmbcinfo          1001a538     LIBCMT:mbctype.obj
 0003:00000758       __mbctype                  1001a758     LIBCMT:mbctype.obj
 0003:00000860       __mbcasemap                1001a860     LIBCMT:mbctype.obj
 0003:00000960       ___ptmbcinfo               1001a960     LIBCMT:mbctype.obj
 0003:00000a58       ___globallocalestatus      1001aa58     LIBCMT:glstatus.obj
 0003:00000a5c       ___clocalestr              1001aa5c     LIBCMT:nlsdata2.obj
 0003:00000a60       ___lc_time_c               1001aa60     LIBCMT:nlsdata2.obj
 0003:00000bc8       ___initiallocinfo          1001abc8     LIBCMT:nlsdata2.obj
 0003:00000ca0       ___ptlocinfo               1001aca0     LIBCMT:nlsdata2.obj
 0003:00000dd0       __NLG_Destination          1001add0     LIBCMT:exsup.obj
 0003:00000de0       ___lconv_static_decimal    1001ade0     LIBCMT:lconv.obj
 0003:00000de4       ___lconv_static_W_decimal  1001ade4     LIBCMT:lconv.obj
 0003:00000de8       ___lconv_c                 1001ade8     LIBCMT:lconv.obj
 0003:00000e38       ___lconv                   1001ae38     LIBCMT:lconv.obj
 0003:00000e3c       __pctype                   1001ae3c     LIBCMT:ctype.obj
 0003:00000e40       __pwctype                  1001ae40     LIBCMT:ctype.obj
 0003:00000e44       ___mb_cur_max              1001ae44     LIBCMT:nlsdata1.obj
 0003:00000e48       ___decimal_point           1001ae48     LIBCMT:nlsdata1.obj
 0003:00000e4c       ___decimal_point_length    1001ae4c     LIBCMT:nlsdata1.obj
 0003:00000e50       __lookuptrailbytes         1001ae50     LIBCMT:read.obj
 0003:00000f80       __confh                    1001af80     LIBCMT:initcon.obj
 0003:00000f90       __pow10pos                 1001af90     LIBCMT:_constpow_.obj
 0003:000010f0       __pow10neg                 1001b0f0     LIBCMT:_constpow_.obj
 0003:00001268       ?current_thread_tls_key@?A0x76023120@boost@@3KA 1001b268     libboost_thread-vc100-mt-s-1_55:thread.obj
 0003:0000126c       ??_R0?AVbad_exception@std@@@8 1001b26c     libboost_thread-vc100-mt-s-1_55:thread.obj
 0003:0000128c       ??_R0?AVsp_counted_base@detail@boost@@@8 1001b28c     libboost_thread-vc100-mt-s-1_55:thread.obj
 0003:000012b8       ??_R0?AV?$sp_counted_impl_p@V?$clone_impl@Ubad_alloc_@exception_detail@boost@@@exception_detail@boost@@@detail@boost@@@8 1001b2b8     libboost_thread-vc100-mt-s-1_55:thread.obj
 0003:00001338       ??_R0?AV?$sp_counted_impl_p@V?$clone_impl@Ubad_exception_@exception_detail@boost@@@exception_detail@boost@@@detail@boost@@@8 1001b338     libboost_thread-vc100-mt-s-1_55:thread.obj
 0003:000013b8       ??_R0?AUbad_alloc_@exception_detail@boost@@@8 1001b3b8     libboost_thread-vc100-mt-s-1_55:thread.obj
 0003:000013e8       ??_R0?AUbad_exception_@exception_detail@boost@@@8 1001b3e8     libboost_thread-vc100-mt-s-1_55:thread.obj
 0003:00001420       ??_R0?AV?$clone_impl@Ubad_alloc_@exception_detail@boost@@@exception_detail@boost@@@8 1001b420     libboost_thread-vc100-mt-s-1_55:thread.obj
 0003:00001478       ??_R0?AV?$clone_impl@Ubad_exception_@exception_detail@boost@@@exception_detail@boost@@@8 1001b478     libboost_thread-vc100-mt-s-1_55:thread.obj
 0003:000014d4       ??_R0?AVerror_category@system@boost@@@8 1001b4d4     libboost_system-vc100-mt-s-1_55:error_code.obj
 0003:00001500       ??_R0?AVnoncopyable@noncopyable_@boost@@@8 1001b500     libboost_system-vc100-mt-s-1_55:error_code.obj
 0003:00001530       ??_R0?AVsystem_error_category@?A0x2ad791f3@system@boost@@@8 1001b530     libboost_system-vc100-mt-s-1_55:error_code.obj
 0003:00001570       ??_R0?AVgeneric_error_category@?A0x2ad791f3@system@boost@@@8 1001b570     libboost_system-vc100-mt-s-1_55:error_code.obj
 0003:000015b0       __lpdays                   1001b5b0     LIBCMT:days.obj
 0003:000015e4       __days                     1001b5e4     LIBCMT:days.obj
 0003:00001620       __sys_errlist              1001b620     LIBCMT:syserr.obj
 0003:000016d0       __sys_nerr                 1001b6d0     LIBCMT:syserr.obj
 0003:00001a88       ??_R0?AVbad_alloc@std@@@8  1001ba88     ILuaModuleManager.obj
 0003:00001aa4       ??_R0?AVexception@std@@@8  1001baa4     ILuaModuleManager.obj
 0003:00001ac0       ??_R0?AVexception@boost@@@8 1001bac0     nav.obj
 0003:00001ae0       ??_R0?AVclone_base@exception_detail@boost@@@8 1001bae0     nav.obj
 0003:00001c08       __matherr_flag             1001bc08     LIBCMT:_matherr_.obj
 0003:00001c10       __d_inf                    1001bc10     LIBCMT:_util_.obj
 0003:00001c18       __d_ind                    1001bc18     LIBCMT:_util_.obj
 0003:00001c20       __d_max                    1001bc20     LIBCMT:_util_.obj
 0003:00001c28       __d_min                    1001bc28     LIBCMT:_util_.obj
 0003:00001c30       __d_mzero                  1001bc30     LIBCMT:_util_.obj
 0003:00001c5c       __aenvptr                  1001bc5c     LIBCMT:dllcrt0.obj
 0003:00001c60       __wenvptr                  1001bc60     LIBCMT:dllcrt0.obj
 0003:00001c64       ___error_mode              1001bc64     LIBCMT:dllcrt0.obj
 0003:00001c68       ___app_type                1001bc68     LIBCMT:dllcrt0.obj
 0003:00001c6c       ___fastflag                1001bc6c     LIBCMT:_fpinit_.obj
 0003:00001f94       ___pInvalidArgHandler      1001bf94     LIBCMT:invarg.obj
 0003:00001f98       ?_pnhHeap@@3P6AHI@ZA       1001bf98     LIBCMT:handler.obj
 0003:00001fa4       __crtheap                  1001bfa4     LIBCMT:heapinit.obj
 0003:00001fa8       __umaskval                 1001bfa8     LIBCMT:crt0dat.obj
 0003:00001fac       ___argc                    1001bfac     LIBCMT:crt0dat.obj
 0003:00001fb0       ___argv                    1001bfb0     LIBCMT:crt0dat.obj
 0003:00001fb4       ___wargv                   1001bfb4     LIBCMT:crt0dat.obj
 0003:00001fb8       __environ                  1001bfb8     LIBCMT:crt0dat.obj
 0003:00001fbc       ___initenv                 1001bfbc     LIBCMT:crt0dat.obj
 0003:00001fc0       __wenviron                 1001bfc0     LIBCMT:crt0dat.obj
 0003:00001fc4       ___winitenv                1001bfc4     LIBCMT:crt0dat.obj
 0003:00001fc8       __pgmptr                   1001bfc8     LIBCMT:crt0dat.obj
 0003:00001fcc       __wpgmptr                  1001bfcc     LIBCMT:crt0dat.obj
 0003:00001fd0       __exitflag                 1001bfd0     LIBCMT:crt0dat.obj
 0003:00001fd4       __C_Termination_Done       1001bfd4     LIBCMT:crt0dat.obj
 0003:00001fd8       __C_Exit_Done              1001bfd8     LIBCMT:crt0dat.obj
 0003:00002608       __newmode                  1001c608     LIBCMT:_newmode.obj
 0003:0000260c       __cflush                   1001c60c     LIBCMT:_file.obj
 0003:00002610       __stdbuf                   1001c610     LIBCMT:_sftbuf.obj
 0003:00002618       ___pPurecall               1001c618     LIBCMT:inithelp.obj
 0003:0000261c       _gpFlsAlloc                1001c61c     LIBCMT:tidtable.obj
 0003:00002620       _gpFlsGetValue             1001c620     LIBCMT:tidtable.obj
 0003:00002624       _gpFlsSetValue             1001c624     LIBCMT:tidtable.obj
 0003:00002628       _gpFlsFree                 1001c628     LIBCMT:tidtable.obj
 0003:0000262c       __maxwait                  1001c62c     LIBCMT:crtheap.obj
 0003:0000273c       ___mbulinfo                1001c73c     LIBCMT:mbctype.obj
 0003:00002748       ___mbcodepage              1001c748     LIBCMT:mbctype.obj
 0003:0000274c       ___ismbcodepage            1001c74c     LIBCMT:mbctype.obj
 0003:00002750       ___mblcid                  1001c750     LIBCMT:mbctype.obj
 0003:00002754       ___locale_changed          1001c754     LIBCMT:setlocal.obj
 0003:000028c0       ?pArgList@UnDecorator@@0PAVReplicator@@A 1001c8c0     LIBCMT:undname.obj
 0003:000028c4       ?pZNameList@UnDecorator@@0PAVReplicator@@A 1001c8c4     LIBCMT:undname.obj
 0003:000028c8       ?pTemplateArgList@UnDecorator@@0PAVReplicator@@A 1001c8c8     LIBCMT:undname.obj
 0003:000028cc       ?gName@UnDecorator@@0PBDB  1001c8cc     LIBCMT:undname.obj
 0003:000028d0       ?name@UnDecorator@@0PBDB   1001c8d0     LIBCMT:undname.obj
 0003:000028d4       ?outputString@UnDecorator@@0PADA 1001c8d4     LIBCMT:undname.obj
 0003:000028d8       ?maxStringLength@UnDecorator@@0HA 1001c8d8     LIBCMT:undname.obj
 0003:000028dc       ?disableFlags@UnDecorator@@0KA 1001c8dc     LIBCMT:undname.obj
 0003:000028e0       ?m_pGetParameter@UnDecorator@@0P6APADJ@ZA 1001c8e0     LIBCMT:undname.obj
 0003:000028e4       ?fExplicitTemplateParams@UnDecorator@@0_NA 1001c8e4     LIBCMT:undname.obj
 0003:000028e5       ?fGetTemplateArgumentList@UnDecorator@@0_NA 1001c8e5     LIBCMT:undname.obj
 0003:000028e8       ?__pInconsistency@@3P6AXXZA 1001c8e8     LIBCMT:hooks.obj
 0003:00002918       __commode                  1001c918     LIBCMT:ncommode.obj
 0003:0000291c       __outputformat             1001c91c     LIBCMT:outputformat.obj
 0003:00002920       ___lconv_static_null       1001c920     LIBCMT:lconv.obj
 0003:00002924       ___lconv_static_W_null     1001c924     LIBCMT:lconv.obj
 0003:00002928       __fmode                    1001c928     LIBCMT:txtmode.obj
 0003:0000292c       ?current_thread_tls_init_flag@?A0x76023120@boost@@3Uonce_flag@2@A 1001c92c     libboost_thread-vc100-mt-s-1_55:thread.obj
 0003:00002940       ?ep@?1???$get_static_exception_object@Ubad_alloc_@exception_detail@boost@@@exception_detail@boost@@YA?AVexception_ptr@2@XZ@4V32@A 1001c940     libboost_thread-vc100-mt-s-1_55:thread.obj
 0003:00002948       ??_B?1???$get_static_exception_object@Ubad_alloc_@exception_detail@boost@@@exception_detail@boost@@YA?AVexception_ptr@1@XZ@51 1001c948     libboost_thread-vc100-mt-s-1_55:thread.obj
 0003:0000294c       ?ep@?1???$get_static_exception_object@Ubad_exception_@exception_detail@boost@@@exception_detail@boost@@YA?AVexception_ptr@2@XZ@4V32@A 1001c94c     libboost_thread-vc100-mt-s-1_55:thread.obj
 0003:00002954       ??_B?1???$get_static_exception_object@Ubad_exception_@exception_detail@boost@@@exception_detail@boost@@YA?AVexception_ptr@1@XZ@51 1001c954     libboost_thread-vc100-mt-s-1_55:thread.obj
 0003:00002958       ?e@?$exception_ptr_static_exception_object@Ubad_exception_@exception_detail@boost@@@exception_detail@boost@@2Vexception_ptr@3@B 1001c958     libboost_thread-vc100-mt-s-1_55:thread.obj
 0003:00002960       ?id@?$num_put@DV?$ostreambuf_iterator@DU?$char_traits@D@std@@@std@@@std@@2V0locale@2@A 1001c960     libboost_thread-vc100-mt-s-1_55:thread.obj
 0003:00002964       ?id@?$numpunct@D@std@@2V0locale@2@A 1001c964     libboost_thread-vc100-mt-s-1_55:thread.obj
 0003:00002968       ?e@?$exception_ptr_static_exception_object@Ubad_alloc_@exception_detail@boost@@@exception_detail@boost@@2Vexception_ptr@3@B 1001c968     libboost_thread-vc100-mt-s-1_55:thread.obj
 0003:000029a4       ?throws@system@boost@@3Verror_code@12@A 1001c9a4     libboost_system-vc100-mt-s-1_55:error_code.obj
 0003:000029b4       __tls_index                1001c9b4     LIBCMT:tlssup.obj
 0003:00002b38       ?enginetrace@@3PAVIEngineTrace@@A 1001cb38     main.obj
 0003:00002b3c       ?VectorMetaRef@@3HA        1001cb3c     main.obj
 0003:00002ba8       ?modulemanager@@3PAVILuaModuleManager@@A 1001cba8     ILuaModuleManager.obj
 0003:00002bf4       __debugger_hook_dummy      1001cbf4     <common>
 0003:00002bf8       __nhandle                  1001cbf8     <common>
 0003:00002c00       ___pioinfo                 1001cc00     <common>
 0003:00002d00       ___piob                    1001cd00     <common>
 0003:00002d20       __bufin                    1001cd20     <common>
 0003:00003d20       __nstream                  1001dd20     <common>
 0003:00003d24       ___env_initialized         1001dd24     <common>
 0003:00003d28       ___onexitend               1001dd28     <common>
 0003:00003d2c       ___onexitbegin             1001dd2c     <common>
 0003:00003d30       ___mbctype_initialized     1001dd30     <common>
 0003:00003d34       ___dyn_tls_init_callback   1001dd34     <common>
 0003:00003d38       ___sse2_available          1001dd38     <common>
 0003:00003d3c       __acmdln                   1001dd3c     <common>
 0004:00000000       __tls_start                1001e000     LIBCMT:tlssup.obj
 0004:00000001       __tls_end                  1001e001     LIBCMT:tlssup.obj

 entry point at        0001:00003c49

 Static symbols

 0001:00000e69       _kd_nearest_i              10001e69 f    CIL library: CIL module
 0001:00001104       _hyperrect_create          10002104 f    CIL library: CIL module
 0001:0000117f       _hyperrect_free            1000217f f    CIL library: CIL module
 0001:00001199       _rlist_insert              10002199 f    CIL library: CIL module
 0001:000019d2       __catch$?_Copy@?$basic_string@DU?$char_traits@D@std@@V?$allocator@D@2@@std@@QAEXII@Z$0 100029d2 f i  CIL library: CIL module
 0001:00001a42       __catch$?_Copy@?$basic_string@DU?$char_traits@D@std@@V?$allocator@D@2@@std@@QAEXII@Z$1 10002a42 f i  CIL library: CIL module
 0001:00003b53       ___DllMainCRTStartup       10004b53 f   LIBCMT:dllcrt0.obj
 0001:00004e1a       _write_char                10005e1a f   LIBCMT:outputs.obj
 0001:00004e4d       _write_string              10005e4d f   LIBCMT:outputs.obj
 0001:00005ae3       __onexit_nolock            10006ae3 f   LIBCMT:onexit.obj
 0001:00005fc0       _doexit                    10006fc0 f   LIBCMT:crt0dat.obj
 0001:00006a50       __unwind_handler4          10007a50 f   LIBCMT:exsup4.obj
 0001:00006db6       _flsall                    10007db6 f   LIBCMT:fflush.obj
 0001:00007536       _parse_cmdline             10008536 f   LIBCMT:stdargv.obj
 0001:00007be7       __shift                    10008be7 f   LIBCMT:cvt.obj
 0001:00007c2c       __cftoe2_l                 10008c2c f   LIBCMT:cvt.obj
 0001:000081ea       __cftof2_l                 100091ea f   LIBCMT:cvt.obj
 0001:00008591       ?CPtoLCID@@YAHH@Z          10009591 f   LIBCMT:mbctype.obj
 0001:000085c0       ?setSBCS@@YAXPAUthreadmbcinfostruct@@@Z 100095c0 f   LIBCMT:mbctype.obj
 0001:00008624       ?setSBUpLow@@YAXPAUthreadmbcinfostruct@@@Z 10009624 f   LIBCMT:mbctype.obj
 0001:00008858       ?getSystemCP@@YAHH@Z       10009858 f   LIBCMT:mbctype.obj
 0001:00009183       ?__crtLCMapStringA_stat@@YAHPAUlocaleinfo_struct@@KKPBDHPADHHH@Z 1000a183 f   LIBCMT:a_map.obj
 0001:0000a27b       _siglookup                 1000b27b f   LIBCMT:winsig.obj
 0001:0000aac0       __unwind_handler           1000bac0 f   LIBCMT:exsup.obj
 0001:0000af94       ?x_ismbbtype_l@@YAHPAUlocaleinfo_struct@@IHH@Z 1000bf94 f   LIBCMT:ismbbyte.obj
 0001:0000b4e7       ?__crtGetStringTypeA_stat@@YAHPAUlocaleinfo_struct@@KPBDHPAGHHH@Z 1000c4e7 f   LIBCMT:a_str.obj
 0001:0000d68f       __hw_cw                    1000e68f f   LIBCMT:_ieee87_.obj
 0001:0000d71d       ___hw_cw_sse2              1000e71d f   LIBCMT:_ieee87_.obj
 0001:0000e319       __catch$?call_once@boost@@YAXAAUonce_flag@1@P6AXXZ@Z$0 1000f319 f i libboost_thread-vc100-mt-s-1_55:thread.obj
 0001:0000e409       __catch$??$?0V?$clone_impl@Ubad_alloc_@exception_detail@boost@@@exception_detail@boost@@@shared_count@detail@boost@@QAE@PAV?$clone_impl@Ubad_alloc_@exception_detail@boost@@@exception_detail@2@@Z$0 1000f409 f i libboost_thread-vc100-mt-s-1_55:thread.obj
 0001:0000e4a9       __catch$??$?0V?$clone_impl@Ubad_exception_@exception_detail@boost@@@exception_detail@boost@@@shared_count@detail@boost@@QAE@PAV?$clone_impl@Ubad_exception_@exception_detail@boost@@@exception_detail@2@@Z$0 1000f4a9 f i libboost_thread-vc100-mt-s-1_55:thread.obj
 0001:0000f6f0       ?on_tls_prepare@?A0xa0cf5416@@YAHXZ 100106f0 f   libboost_thread-vc100-mt-s-1_55:tss_pe.obj
 0001:0000f700       ?on_process_init@?A0xa0cf5416@@YAHXZ 10010700 f   libboost_thread-vc100-mt-s-1_55:tss_pe.obj
 0001:0000f720       ?on_process_term@?A0xa0cf5416@@YAHXZ 10010720 f   libboost_thread-vc100-mt-s-1_55:tss_pe.obj
 0001:0000f730       ?on_tls_callback@?A0xa0cf5416@@YGXPAUHINSTANCE__@@KPAX@Z 10010730 f   libboost_thread-vc100-mt-s-1_55:tss_pe.obj
 0001:0001078f       ?CatchGuardHandler@@YA?AW4_EXCEPTION_DISPOSITION@@PAUEHExceptionRecord@@PAUCatchGuardRN@@PAX2@Z 1001178f f   LIBCMT:_trnsctrl_.obj
 0001:00010899       ?TranslatorGuardHandler@@YA?AW4_EXCEPTION_DISPOSITION@@PAUEHExceptionRecord@@PAUTranslatorGuardRN@@PAX2@Z 10011899 f   LIBCMT:_trnsctrl_.obj
 0001:00010e36       ?ExFilterRethrow@@YAHPAU_EXCEPTION_POINTERS@@@Z 10011e36 f   LIBCMT:frame.obj
 0001:00010ef9       ?IsInExceptionSpec@@YAEPAUEHExceptionRecord@@PBU_s_ESTypeList@@@Z 10011ef9 f   LIBCMT:frame.obj
 0001:00010f6f       ?CallUnexpected@@YAXPBU_s_ESTypeList@@@Z 10011f6f f   LIBCMT:frame.obj
 0001:00010fa0       __catch$?CallUnexpected@@YAXPBU_s_ESTypeList@@@Z$0 10011fa0 f   LIBCMT:frame.obj
 0001:00010fb8       ?CallCatchBlock@@YAPAXPAUEHExceptionRecord@@PAUEHRegistrationNode@@PAU_CONTEXT@@PBU_s_FuncInfo@@PAXHK@Z 10011fb8 f   LIBCMT:frame.obj
 0001:00011365       ?CatchIt@@YAXPAUEHExceptionRecord@@PAUEHRegistrationNode@@PAU_CONTEXT@@PAXPBU_s_FuncInfo@@PBU_s_HandlerType@@PBU_s_CatchableType@@PBU_s_TryBlockMapEntry@@H1E@Z 10012365 f   LIBCMT:frame.obj
 0001:000113d3       ?FindHandlerForForeignException@@YAXPAUEHExceptionRecord@@PAUEHRegistrationNode@@PAU_CONTEXT@@PAXPBU_s_FuncInfo@@HH1@Z 100123d3 f   LIBCMT:frame.obj
 0001:000114da       ?FindHandler@@YAXPAUEHExceptionRecord@@PAUEHRegistrationNode@@PAU_CONTEXT@@PAXPBU_s_FuncInfo@@EH1@Z 100124da f   LIBCMT:frame.obj
 0001:000126a0       __unwindfunclet$?call_once@boost@@YAXAAUonce_flag@1@P6AXXZ@Z$2 100136a0 f   libboost_thread-vc100-mt-s-1_55:thread.obj
 0001:000126a8       __ehhandler$?call_once@boost@@YAXAAUonce_flag@1@P6AXXZ@Z 100136a8 f   libboost_thread-vc100-mt-s-1_55:thread.obj
 0001:000126d0       __ehhandler$??$?0V?$clone_impl@Ubad_alloc_@exception_detail@boost@@@exception_detail@boost@@@shared_count@detail@boost@@QAE@PAV?$clone_impl@Ubad_alloc_@exception_detail@boost@@@exception_detail@2@@Z 100136d0 f   libboost_thread-vc100-mt-s-1_55:thread.obj
 0001:000126f0       __ehhandler$??$?0V?$clone_impl@Ubad_exception_@exception_detail@boost@@@exception_detail@boost@@@shared_count@detail@boost@@QAE@PAV?$clone_impl@Ubad_exception_@exception_detail@boost@@@exception_detail@2@@Z 100136f0 f   libboost_thread-vc100-mt-s-1_55:thread.obj
 0001:00012710       __unwindfunclet$??0bad_exception_@exception_detail@boost@@QAE@ABU012@@Z$0 10013710 f   libboost_thread-vc100-mt-s-1_55:thread.obj
 0001:00012710       __unwindfunclet$??0bad_alloc_@exception_detail@boost@@QAE@ABU012@@Z$0 10013710 f   libboost_thread-vc100-mt-s-1_55:thread.obj
 0001:00012718       __ehhandler$??0bad_alloc_@exception_detail@boost@@QAE@ABU012@@Z 10013718 f   libboost_thread-vc100-mt-s-1_55:thread.obj
 0001:00012718       __ehhandler$??0bad_exception_@exception_detail@boost@@QAE@ABU012@@Z 10013718 f   libboost_thread-vc100-mt-s-1_55:thread.obj
 0001:00012740       __unwindfunclet$??0?$clone_impl@Ubad_alloc_@exception_detail@boost@@@exception_detail@boost@@QAE@ABV012@@Z$0 10013740 f   libboost_thread-vc100-mt-s-1_55:thread.obj
 0001:00012740       __unwindfunclet$??0?$clone_impl@Ubad_exception_@exception_detail@boost@@@exception_detail@boost@@QAE@ABV012@@Z$0 10013740 f   libboost_thread-vc100-mt-s-1_55:thread.obj
 0001:0001275c       __ehhandler$??0?$clone_impl@Ubad_alloc_@exception_detail@boost@@@exception_detail@boost@@QAE@ABV012@@Z 1001375c f   libboost_thread-vc100-mt-s-1_55:thread.obj
 0001:0001275c       __ehhandler$??0?$clone_impl@Ubad_exception_@exception_detail@boost@@@exception_detail@boost@@QAE@ABV012@@Z 1001375c f   libboost_thread-vc100-mt-s-1_55:thread.obj
 0001:00012780       __unwindfunclet$?rethrow@?$clone_impl@Ubad_exception_@exception_detail@boost@@@exception_detail@boost@@EBEXXZ$0 10013780 f   libboost_thread-vc100-mt-s-1_55:thread.obj
 0001:00012780       __unwindfunclet$?rethrow@?$clone_impl@Ubad_alloc_@exception_detail@boost@@@exception_detail@boost@@EBEXXZ$0 10013780 f   libboost_thread-vc100-mt-s-1_55:thread.obj
 0001:00012799       __unwindfunclet$?rethrow@?$clone_impl@Ubad_exception_@exception_detail@boost@@@exception_detail@boost@@EBEXXZ$2 10013799 f   libboost_thread-vc100-mt-s-1_55:thread.obj
 0001:00012799       __unwindfunclet$?rethrow@?$clone_impl@Ubad_alloc_@exception_detail@boost@@@exception_detail@boost@@EBEXXZ$2 10013799 f   libboost_thread-vc100-mt-s-1_55:thread.obj
 0001:000127a1       __ehhandler$?rethrow@?$clone_impl@Ubad_alloc_@exception_detail@boost@@@exception_detail@boost@@EBEXXZ 100137a1 f   libboost_thread-vc100-mt-s-1_55:thread.obj
 0001:000127a1       __ehhandler$?rethrow@?$clone_impl@Ubad_exception_@exception_detail@boost@@@exception_detail@boost@@EBEXXZ 100137a1 f   libboost_thread-vc100-mt-s-1_55:thread.obj
 0001:000127c0       __unwindfunclet$??$get_static_exception_object@Ubad_alloc_@exception_detail@boost@@@exception_detail@boost@@YA?AVexception_ptr@1@XZ$6 100137c0 f   libboost_thread-vc100-mt-s-1_55:thread.obj
 0001:000127c8       __unwindfunclet$??$get_static_exception_object@Ubad_alloc_@exception_detail@boost@@@exception_detail@boost@@YA?AVexception_ptr@1@XZ$0 100137c8 f   libboost_thread-vc100-mt-s-1_55:thread.obj
 0001:000127d0       __unwindfunclet$??$get_static_exception_object@Ubad_alloc_@exception_detail@boost@@@exception_detail@boost@@YA?AVexception_ptr@1@XZ$8 100137d0 f   libboost_thread-vc100-mt-s-1_55:thread.obj
 0001:000127e9       __unwindfunclet$??$get_static_exception_object@Ubad_alloc_@exception_detail@boost@@@exception_detail@boost@@YA?AVexception_ptr@1@XZ$10 100137e9 f   libboost_thread-vc100-mt-s-1_55:thread.obj
 0001:000127f1       __unwindfunclet$??$get_static_exception_object@Ubad_alloc_@exception_detail@boost@@@exception_detail@boost@@YA?AVexception_ptr@1@XZ$9 100137f1 f   libboost_thread-vc100-mt-s-1_55:thread.obj
 0001:000127f9       __unwindfunclet$??$get_static_exception_object@Ubad_alloc_@exception_detail@boost@@@exception_detail@boost@@YA?AVexception_ptr@1@XZ$1 100137f9 f   libboost_thread-vc100-mt-s-1_55:thread.obj
 0001:00012801       __unwindfunclet$??$get_static_exception_object@Ubad_alloc_@exception_detail@boost@@@exception_detail@boost@@YA?AVexception_ptr@1@XZ$2 10013801 f   libboost_thread-vc100-mt-s-1_55:thread.obj
 0001:0001280f       __unwindfunclet$??$get_static_exception_object@Ubad_alloc_@exception_detail@boost@@@exception_detail@boost@@YA?AVexception_ptr@1@XZ$3 1001380f f   libboost_thread-vc100-mt-s-1_55:thread.obj
 0001:0001281a       __unwindfunclet$??$get_static_exception_object@Ubad_alloc_@exception_detail@boost@@@exception_detail@boost@@YA?AVexception_ptr@1@XZ$14 1001381a f   libboost_thread-vc100-mt-s-1_55:thread.obj
 0001:00012836       __unwindfunclet$??$get_static_exception_object@Ubad_alloc_@exception_detail@boost@@@exception_detail@boost@@YA?AVexception_ptr@1@XZ$16 10013836 f   libboost_thread-vc100-mt-s-1_55:thread.obj
 0001:0001283e       __ehhandler$??$get_static_exception_object@Ubad_alloc_@exception_detail@boost@@@exception_detail@boost@@YA?AVexception_ptr@1@XZ 1001383e f   libboost_thread-vc100-mt-s-1_55:thread.obj
 0001:00012860       __unwindfunclet$??$get_static_exception_object@Ubad_exception_@exception_detail@boost@@@exception_detail@boost@@YA?AVexception_ptr@1@XZ$6 10013860 f   libboost_thread-vc100-mt-s-1_55:thread.obj
 0001:00012868       __unwindfunclet$??$get_static_exception_object@Ubad_exception_@exception_detail@boost@@@exception_detail@boost@@YA?AVexception_ptr@1@XZ$0 10013868 f   libboost_thread-vc100-mt-s-1_55:thread.obj
 0001:00012870       __unwindfunclet$??$get_static_exception_object@Ubad_exception_@exception_detail@boost@@@exception_detail@boost@@YA?AVexception_ptr@1@XZ$8 10013870 f   libboost_thread-vc100-mt-s-1_55:thread.obj
 0001:00012889       __unwindfunclet$??$get_static_exception_object@Ubad_exception_@exception_detail@boost@@@exception_detail@boost@@YA?AVexception_ptr@1@XZ$10 10013889 f   libboost_thread-vc100-mt-s-1_55:thread.obj
 0001:00012891       __unwindfunclet$??$get_static_exception_object@Ubad_exception_@exception_detail@boost@@@exception_detail@boost@@YA?AVexception_ptr@1@XZ$9 10013891 f   libboost_thread-vc100-mt-s-1_55:thread.obj
 0001:00012899       __unwindfunclet$??$get_static_exception_object@Ubad_exception_@exception_detail@boost@@@exception_detail@boost@@YA?AVexception_ptr@1@XZ$1 10013899 f   libboost_thread-vc100-mt-s-1_55:thread.obj
 0001:000128a1       __unwindfunclet$??$get_static_exception_object@Ubad_exception_@exception_detail@boost@@@exception_detail@boost@@YA?AVexception_ptr@1@XZ$2 100138a1 f   libboost_thread-vc100-mt-s-1_55:thread.obj
 0001:000128af       __unwindfunclet$??$get_static_exception_object@Ubad_exception_@exception_detail@boost@@@exception_detail@boost@@YA?AVexception_ptr@1@XZ$3 100138af f   libboost_thread-vc100-mt-s-1_55:thread.obj
 0001:000128ba       __unwindfunclet$??$get_static_exception_object@Ubad_exception_@exception_detail@boost@@@exception_detail@boost@@YA?AVexception_ptr@1@XZ$14 100138ba f   libboost_thread-vc100-mt-s-1_55:thread.obj
 0001:000128d6       __unwindfunclet$??$get_static_exception_object@Ubad_exception_@exception_detail@boost@@@exception_detail@boost@@YA?AVexception_ptr@1@XZ$16 100138d6 f   libboost_thread-vc100-mt-s-1_55:thread.obj
 0001:000128de       __ehhandler$??$get_static_exception_object@Ubad_exception_@exception_detail@boost@@@exception_detail@boost@@YA?AVexception_ptr@1@XZ 100138de f   libboost_thread-vc100-mt-s-1_55:thread.obj
 0001:00012900       __unwindfunclet$?clone@?$clone_impl@Ubad_alloc_@exception_detail@boost@@@exception_detail@boost@@EBEPBVclone_base@23@XZ$0 10013900 f   libboost_thread-vc100-mt-s-1_55:thread.obj
 0001:0001290b       __unwindfunclet$?clone@?$clone_impl@Ubad_alloc_@exception_detail@boost@@@exception_detail@boost@@EBEPBVclone_base@23@XZ$1 1001390b f   libboost_thread-vc100-mt-s-1_55:thread.obj
 0001:00012927       __unwindfunclet$?clone@?$clone_impl@Ubad_alloc_@exception_detail@boost@@@exception_detail@boost@@EBEPBVclone_base@23@XZ$2 10013927 f   libboost_thread-vc100-mt-s-1_55:thread.obj
 0001:0001292f       __ehhandler$?clone@?$clone_impl@Ubad_alloc_@exception_detail@boost@@@exception_detail@boost@@EBEPBVclone_base@23@XZ 1001392f f   libboost_thread-vc100-mt-s-1_55:thread.obj
 0001:00012950       __unwindfunclet$?clone@?$clone_impl@Ubad_exception_@exception_detail@boost@@@exception_detail@boost@@EBEPBVclone_base@23@XZ$0 10013950 f   libboost_thread-vc100-mt-s-1_55:thread.obj
 0001:0001295b       __unwindfunclet$?clone@?$clone_impl@Ubad_exception_@exception_detail@boost@@@exception_detail@boost@@EBEPBVclone_base@23@XZ$1 1001395b f   libboost_thread-vc100-mt-s-1_55:thread.obj
 0001:00012977       __unwindfunclet$?clone@?$clone_impl@Ubad_exception_@exception_detail@boost@@@exception_detail@boost@@EBEPBVclone_base@23@XZ$2 10013977 f   libboost_thread-vc100-mt-s-1_55:thread.obj
 0001:0001297f       __ehhandler$?clone@?$clone_impl@Ubad_exception_@exception_detail@boost@@@exception_detail@boost@@EBEPBVclone_base@23@XZ 1001397f f   libboost_thread-vc100-mt-s-1_55:thread.obj
 0001:000129a0       __unwindfunclet$?run_thread_exit_callbacks@?A0x76023120@boost@@YAXXZ$0 100139a0 f   libboost_thread-vc100-mt-s-1_55:thread.obj
 0001:000129a8       __ehhandler$?run_thread_exit_callbacks@?A0x76023120@boost@@YAXXZ 100139a8 f   libboost_thread-vc100-mt-s-1_55:thread.obj
 0001:000129d0       __unwindfunclet$??__Eposix_category@system@boost@@YAXXZ$0 100139d0 f   libboost_system-vc100-mt-s-1_55:error_code.obj
 0001:000129d0       __unwindfunclet$??__Eerrno_ecat@system@boost@@YAXXZ$0 100139d0 f   libboost_system-vc100-mt-s-1_55:error_code.obj
 0001:000129d0       __unwindfunclet$?generic_category@system@boost@@YAABVerror_category@12@XZ$0 100139d0 f   libboost_system-vc100-mt-s-1_55:error_code.obj
 0001:000129d0       __unwindfunclet$?make_error_condition@errc@system@boost@@YA?AVerror_condition@23@W4errc_t@123@@Z$0 100139d0 f   libboost_system-vc100-mt-s-1_55:error_code.obj
 0001:000129de       __ehhandler$?make_error_condition@errc@system@boost@@YA?AVerror_condition@23@W4errc_t@123@@Z 100139de f   libboost_system-vc100-mt-s-1_55:error_code.obj
 0001:000129de       __ehhandler$??__Eposix_category@system@boost@@YAXXZ 100139de f   libboost_system-vc100-mt-s-1_55:error_code.obj
 0001:000129de       __ehhandler$?generic_category@system@boost@@YAABVerror_category@12@XZ 100139de f   libboost_system-vc100-mt-s-1_55:error_code.obj
 0001:000129de       __ehhandler$??__Eerrno_ecat@system@boost@@YAXXZ 100139de f   libboost_system-vc100-mt-s-1_55:error_code.obj
 0001:00012a00       __unwindfunclet$?default_error_condition@system_error_category@?A0x2ad791f3@system@boost@@UBE?AVerror_condition@34@H@Z$0 10013a00 f   libboost_system-vc100-mt-s-1_55:error_code.obj
 0001:00012a0e       __ehhandler$?default_error_condition@system_error_category@?A0x2ad791f3@system@boost@@UBE?AVerror_condition@34@H@Z 10013a0e f   libboost_system-vc100-mt-s-1_55:error_code.obj
 0001:00012a30       __unwindfunclet$?message@generic_error_category@?A0x2ad791f3@system@boost@@UBE?AV?$basic_string@DU?$char_traits@D@std@@V?$allocator@D@2@@std@@H@Z$0 10013a30 f   libboost_system-vc100-mt-s-1_55:error_code.obj
 0001:00012a3e       __unwindfunclet$?message@generic_error_category@?A0x2ad791f3@system@boost@@UBE?AV?$basic_string@DU?$char_traits@D@std@@V?$allocator@D@2@@std@@H@Z$1 10013a3e f   libboost_system-vc100-mt-s-1_55:error_code.obj
 0001:00012a57       __unwindfunclet$?message@generic_error_category@?A0x2ad791f3@system@boost@@UBE?AV?$basic_string@DU?$char_traits@D@std@@V?$allocator@D@2@@std@@H@Z$2 10013a57 f   libboost_system-vc100-mt-s-1_55:error_code.obj
 0001:00012a70       __ehhandler$?message@generic_error_category@?A0x2ad791f3@system@boost@@UBE?AV?$basic_string@DU?$char_traits@D@std@@V?$allocator@D@2@@std@@H@Z 10013a70 f   libboost_system-vc100-mt-s-1_55:error_code.obj
 0001:00012aa0       __unwindfunclet$?message@system_error_category@?A0x2ad791f3@system@boost@@UBE?AV?$basic_string@DU?$char_traits@D@std@@V?$allocator@D@2@@std@@H@Z$0 10013aa0 f   libboost_system-vc100-mt-s-1_55:error_code.obj
 0001:00012aa8       __unwindfunclet$?message@system_error_category@?A0x2ad791f3@system@boost@@UBE?AV?$basic_string@DU?$char_traits@D@std@@V?$allocator@D@2@@std@@H@Z$1 10013aa8 f   libboost_system-vc100-mt-s-1_55:error_code.obj
 0001:00012ac1       __unwindfunclet$?message@system_error_category@?A0x2ad791f3@system@boost@@UBE?AV?$basic_string@DU?$char_traits@D@std@@V?$allocator@D@2@@std@@H@Z$2 10013ac1 f   libboost_system-vc100-mt-s-1_55:error_code.obj
 0001:00012ac9       __ehhandler$?message@system_error_category@?A0x2ad791f3@system@boost@@UBE?AV?$basic_string@DU?$char_traits@D@std@@V?$allocator@D@2@@std@@H@Z 10013ac9 f   libboost_system-vc100-mt-s-1_55:error_code.obj
 0001:00012b00       __unwindfunclet$??__Enative_ecat@system@boost@@YAXXZ$0 10013b00 f   libboost_system-vc100-mt-s-1_55:error_code.obj
 0001:00012b00       __unwindfunclet$?system_category@system@boost@@YAABVerror_category@12@XZ$0 10013b00 f   libboost_system-vc100-mt-s-1_55:error_code.obj
 0001:00012b00       __unwindfunclet$??__Ethrows@system@boost@@YAXXZ$0 10013b00 f   libboost_system-vc100-mt-s-1_55:error_code.obj
 0001:00012b0e       __ehhandler$??__Enative_ecat@system@boost@@YAXXZ 10013b0e f   libboost_system-vc100-mt-s-1_55:error_code.obj
 0001:00012b0e       __ehhandler$??__Ethrows@system@boost@@YAXXZ 10013b0e f   libboost_system-vc100-mt-s-1_55:error_code.obj
 0001:00012b0e       __ehhandler$?system_category@system@boost@@YAABVerror_category@12@XZ 10013b0e f   libboost_system-vc100-mt-s-1_55:error_code.obj
 0001:00012b28       __ehhandler$?CallUnexpected@@YAXPBU_s_ESTypeList@@@Z 10013b28 f   LIBCMT:frame.obj
 0001:00012b43       __unwindfunclet$?copy_boost_exception@exception_detail@boost@@YAXPAVexception@2@PBV32@@Z$0 10013b43 f    CIL library: CIL module
 0001:00012b4b       __unwindfunclet$?copy_boost_exception@exception_detail@boost@@YAXPAVexception@2@PBV32@@Z$1 10013b4b f    CIL library: CIL module
 0001:00012b53       __ehhandler$?copy_boost_exception@exception_detail@boost@@YAXPAVexception@2@PBV32@@Z 10013b53 f    CIL library: CIL module
 0001:00012b6e       __unwindfunclet$?GetNewTable@ILuaInterface@@QAEPAVILuaObject@@XZ$0 10013b6e f    CIL library: CIL module
 0001:00012b6e       __unwindfunclet$?GetMetaTable@ILuaInterface@@QAEPAVILuaObject@@PBDH@Z$0 10013b6e f    CIL library: CIL module
 0001:00012b6e       __unwindfunclet$??__Emodulemanager@@YAXXZ$0 10013b6e f    CIL library: CIL module
 0001:00012b78       __ehhandler$?GetMetaTable@ILuaInterface@@QAEPAVILuaObject@@PBDH@Z 10013b78 f    CIL library: CIL module
 0001:00012b78       __ehhandler$?GetNewTable@ILuaInterface@@QAEPAVILuaObject@@XZ 10013b78 f    CIL library: CIL module
 0001:00012b78       __ehhandler$??__Emodulemanager@@YAXXZ 10013b78 f    CIL library: CIL module
 0001:00012b93       __unwindfunclet$?GetObject@ILuaInterface@@QAEPAVILuaObject@@H@Z$0 10013b93 f    CIL library: CIL module
 0001:00012b93       __unwindfunclet$?Init@@YAHPAUlua_State@@@Z$0 10013b93 f    CIL library: CIL module
 0001:00012b93       __unwindfunclet$?GetGlobal@ILuaInterface@@QAEPAVILuaObject@@PBD@Z$0 10013b93 f    CIL library: CIL module
 0001:00012b9d       __ehhandler$?Init@@YAHPAUlua_State@@@Z 10013b9d f    CIL library: CIL module
 0001:00012b9d       __ehhandler$?GetObject@ILuaInterface@@QAEPAVILuaObject@@H@Z 10013b9d f    CIL library: CIL module
 0001:00012b9d       __ehhandler$?GetGlobal@ILuaInterface@@QAEPAVILuaObject@@PBD@Z 10013b9d f    CIL library: CIL module
 0001:00012bb8       __unwindfunclet$??0ILuaInterface@@QAE@PAUlua_State@@@Z$0 10013bb8 f    CIL library: CIL module
 0001:00012bc2       __unwindfunclet$??0ILuaInterface@@QAE@PAUlua_State@@@Z$1 10013bc2 f    CIL library: CIL module
 0001:00012bcc       __unwindfunclet$??0ILuaInterface@@QAE@PAUlua_State@@@Z$2 10013bcc f    CIL library: CIL module
 0001:00012bd6       __ehhandler$??0ILuaInterface@@QAE@PAUlua_State@@@Z 10013bd6 f    CIL library: CIL module
 0001:00012bf1       __unwindfunclet$?GetMember@ILuaObject@@QAEPAV1@N@Z$0 10013bf1 f    CIL library: CIL module
 0001:00012bfb       __ehhandler$?GetMember@ILuaObject@@QAEPAV1@N@Z 10013bfb f    CIL library: CIL module
 0001:00012c16       __unwindfunclet$?DeleteLuaVector@ILuaInterface@@QAEXPAV?$CUtlVector@ULuaKeyValue@@V?$CUtlMemory@ULuaKeyValue@@H@@@@@Z$0 10013c16 f    CIL library: CIL module
 0001:00012c1e       __ehhandler$?DeleteLuaVector@ILuaInterface@@QAEXPAV?$CUtlVector@ULuaKeyValue@@V?$CUtlMemory@ULuaKeyValue@@H@@@@@Z 10013c1e f    CIL library: CIL module
 0001:00012c39       __unwindfunclet$??1?$CUtlVector@PAUBorder@@V?$CUtlMemory@PAUBorder@@H@@@@QAE@XZ$0 10013c39 f    CIL library: CIL module
 0001:00012c39       __unwindfunclet$??1?$CUtlVector@PAVNode@@V?$CUtlMemory@PAVNode@@H@@@@QAE@XZ$0 10013c39 f    CIL library: CIL module
 0001:00012c41       __ehhandler$??1?$CUtlVector@PAVNode@@V?$CUtlMemory@PAVNode@@H@@@@QAE@XZ 10013c41 f    CIL library: CIL module
 0001:00012c41       __ehhandler$??1?$CUtlVector@PAUBorder@@V?$CUtlMemory@PAUBorder@@H@@@@QAE@XZ 10013c41 f    CIL library: CIL module
 0001:00012c5c       __ehhandler$?_Copy@?$basic_string@DU?$char_traits@D@std@@V?$allocator@D@2@@std@@QAEXII@Z 10013c5c f    CIL library: CIL module
 0001:00012c77       __unwindfunclet$?GetMembers@ILuaObject@@QAEPAV?$CUtlVector@ULuaKeyValue@@V?$CUtlMemory@ULuaKeyValue@@H@@@@XZ$0 10013c77 f    CIL library: CIL module
 0001:00012c81       __ehhandler$?GetMembers@ILuaObject@@QAEPAV?$CUtlVector@ULuaKeyValue@@V?$CUtlMemory@ULuaKeyValue@@H@@@@XZ 10013c81 f    CIL library: CIL module
 0001:00012c9c       __unwindfunclet$?Nav_Flood@@YAHPAUlua_State@@@Z$0 10013c9c f    CIL library: CIL module
 0001:00012ca6       __unwindfunclet$?Nav_Flood@@YAHPAUlua_State@@@Z$1 10013ca6 f    CIL library: CIL module
 0001:00012cb0       __unwindfunclet$?Nav_Flood@@YAHPAUlua_State@@@Z$2 10013cb0 f    CIL library: CIL module
 0001:00012cba       __unwindfunclet$?Nav_Flood@@YAHPAUlua_State@@@Z$6 10013cba f    CIL library: CIL module
 0001:00012cc2       __ehhandler$?Nav_Flood@@YAHPAUlua_State@@@Z 10013cc2 f    CIL library: CIL module
 0001:00012cf0       ??__Emodulemanager@@YAXXZ  10013cf0 f    CIL library: CIL module
 0001:00012d49       ??__Eposix_category@system@boost@@YAXXZ 10013d49 f    CIL library: CIL module
 0001:00012d54       ??__Eerrno_ecat@system@boost@@YAXXZ 10013d54 f    CIL library: CIL module
 0001:00012d5f       ??__Enative_ecat@system@boost@@YAXXZ 10013d5f f    CIL library: CIL module
 0001:00012d6a       ??__Eposix_category@system@boost@@YAXXZ 10013d6a f    CIL library: CIL module
 0001:00012d75       ??__Eerrno_ecat@system@boost@@YAXXZ 10013d75 f    CIL library: CIL module
 0001:00012d80       ??__Enative_ecat@system@boost@@YAXXZ 10013d80 f    CIL library: CIL module
 0001:00012d8b       ??__Eposix_category@system@boost@@YAXXZ 10013d8b f    CIL library: CIL module
 0001:00012d96       ??__Eerrno_ecat@system@boost@@YAXXZ 10013d96 f    CIL library: CIL module
 0001:00012da1       ??__Enative_ecat@system@boost@@YAXXZ 10013da1 f    CIL library: CIL module
 0001:00012db0       ??__E?e@?$exception_ptr_static_exception_object@Ubad_alloc_@exception_detail@boost@@@exception_detail@boost@@2Vexception_ptr@3@B@@YAXXZ 10013db0 f   libboost_thread-vc100-mt-s-1_55:thread.obj
 0001:00012dd0       ??__E?e@?$exception_ptr_static_exception_object@Ubad_exception_@exception_detail@boost@@@exception_detail@boost@@2Vexception_ptr@3@B@@YAXXZ 10013dd0 f   libboost_thread-vc100-mt-s-1_55:thread.obj
 0001:00012df0       ??__Eposix_category@system@boost@@YAXXZ 10013df0 f   libboost_system-vc100-mt-s-1_55:error_code.obj
 0001:00012e60       ??__Eerrno_ecat@system@boost@@YAXXZ 10013e60 f   libboost_system-vc100-mt-s-1_55:error_code.obj
 0001:00012ed0       ??__Enative_ecat@system@boost@@YAXXZ 10013ed0 f   libboost_system-vc100-mt-s-1_55:error_code.obj
 0001:00012f40       ??__Ethrows@system@boost@@YAXXZ 10013f40 f   libboost_system-vc100-mt-s-1_55:error_code.obj
 0001:00012fb0       ??__Fnomem@?5???2@YAPAXI@Z@YAXXZ 10013fb0 f   LIBCMT:new.obj
 0001:00012fd0       ??__F?e@?$exception_ptr_static_exception_object@Ubad_exception_@exception_detail@boost@@@exception_detail@boost@@2Vexception_ptr@3@B@@YAXXZ 10013fd0 f   libboost_thread-vc100-mt-s-1_55:thread.obj
 0001:00013010       ??__F?e@?$exception_ptr_static_exception_object@Ubad_alloc_@exception_detail@boost@@@exception_detail@boost@@2Vexception_ptr@3@B@@YAXXZ 10014010 f   libboost_thread-vc100-mt-s-1_55:thread.obj
 0001:00013050       ??__Fep@?1???$get_static_exception_object@Ubad_exception_@exception_detail@boost@@@exception_detail@boost@@YA?AVexception_ptr@1@XZ@YAXXZ 10014050 f   libboost_thread-vc100-mt-s-1_55:thread.obj
 0001:00013090       ??__Fep@?1???$get_static_exception_object@Ubad_alloc_@exception_detail@boost@@@exception_detail@boost@@YA?AVexception_ptr@1@XZ@YAXXZ 10014090 f   libboost_thread-vc100-mt-s-1_55:thread.obj
 0001:000130d0       ??__Fsystem_category_const@?1??system_category@system@boost@@YAABVerror_category@12@XZ@YAXXZ 100140d0 f   libboost_system-vc100-mt-s-1_55:error_code.obj
 0001:000130e0       ??__Fgeneric_category_const@?1??generic_category@system@boost@@YAABVerror_category@12@XZ@YAXXZ 100140e0 f   libboost_system-vc100-mt-s-1_55:error_code.obj
 0001:000130f0       ??__Funknown_err@?1??message@generic_error_category@?A0x2ad791f3@system@boost@@UBE?AV?$basic_string@DU?$char_traits@D@std@@V?$allocator@D@2@@std@@H@Z@YAXXZ 100140f0 f   libboost_system-vc100-mt-s-1_55:error_code.obj
